(dp0
Vbarrages
p1
I7301
sVyellow
p2
I2580
sVfour
p3
I133
sVwoods
p4
I2313
sVpazner
p5
I7653
sVcounterintelligence
p6
I7149
sVaggression
p7
I4975
sVmarching
p8
I5673
sVlooking
p9
I846
sVshura
p10
I7233
sVgranting
p11
I5635
sVelectricity
p12
I2418
sVdeploying
p13
I6480
sVhacked
p14
I6920
sVregional
p15
I889
sVdell
p16
I5153
sVstipulate
p17
I7267
sVmalfunctioned
p18
I7428
sVfur
p19
I5820
sVstabbed
p20
I5883
sVbringing
p21
I2223
sVprize
p22
I1837
sVobstruction
p23
I6520
sVwooden
p24
I3884
sVwednesday
p25
I177
sVjihad
p26
I4333
sVsuccession
p27
I4832
sVcommented
p28
I4989
sVcharter
p29
I3261
sVtired
p30
I4120
sVmiller
p31
I2271
sVelections
p32
I606
sVsecond
p33
I126
sVsailed
p34
I5075
sVerrors
p35
I4238
sVthunder
p36
I6070
sVbonuses
p37
I5532
sVincreasing
p38
I1806
sVhero
p39
I3152
sVavert
p40
I6109
sVreporter
p41
I2727
sVfervent
p42
I6999
sVhere
p43
I187
sVreported
p44
I291
sVchina
p45
I132
sVcult
p46
I4553
sVaffiliated
p47
I4424
sVkids
p48
I1722
sVclimbed
p49
I3489
sVreports
p50
I678
sVcontroversy
p51
I2833
sVmilitary
p52
I178
sVjianchao
p53
I7370
sVkido
p54
I7715
sVcriticism
p55
I1853
sVgolden
p56
I2237
sVdivide
p57
I4766
sVmagically
p58
I7278
sVowed
p59
I5474
sVexplained
p60
I2767
sVhamas
p61
I1428
sVbrought
p62
I829
sVunit
p63
I1173
sVopponents
p64
I2321
sVdna
p65
I3586
sVspoke
p66
I1718
sVbest-selling
p67
I6894
sVoccupying
p68
I6050
sVramstein
p69
I7429
sVmusic
p70
I401
sVtherefore
p71
I2152
sVstrike
p72
I1101
sVuntil
p73
I207
sV30-foot
p74
I7290
sVpaperwork
p75
I6506
sVholy
p76
I2454
sVrelax
p77
I6042
sVsuccessful
p78
I1261
sVbrings
p79
I3381
sVyahoo
p80
I4771
sVhurt
p81
I1962
sVglass
p82
I2584
sVtying
p83
I5480
sV5.15
p84
I7321
sV90
p85
I1792
sVmidst
p86
I5445
sVhold
p87
I789
sV94
p88
I5044
sVcircumstances
p89
I3052
sVlocked
p90
I4141
sVbrutality
p91
I6470
sVpursue
p92
I3327
sVfamed
p93
I5593
sVplunged
p94
I4028
sVbattlefront
p95
I7620
sVexample
p96
I861
sVmelony
p97
I7999
sVartillery
p98
I3430
sVorganized
p99
I1983
sVvehemently
p100
I6620
sVcurrency
p101
I1508
sVcaution
p102
I5070
sVreviewing
p103
I5146
sVwant
p104
I301
sVcomplaining
p105
I5495
sVtravel
p106
I1110
sVdamage
p107
I1389
sVmachine
p108
I2191
sVhow
p109
I197
sVhot
p110
I1557
sVhop
p111
I4815
sVindustrialised
p112
I6993
sVdisgrace
p113
I6766
sVoutlawed
p114
I5778
sVshores
p115
I5961
sVwrong
p116
I1708
sVsentencing
p117
I5367
sVtypes
p118
I2605
sVtulia
p119
I7776
sVeffective
p120
I1918
sVwins
p121
I1796
sVyouths
p122
I4837
sVwould-be
p123
I7461
sVrevolt
p124
I5220
sVheadquarters
p125
I1500
sVpresiding
p126
I6184
sVsickening
p127
I7330
sVcigarettes
p128
I5181
sV18th
p129
I3393
sVammo
p130
I7426
sVkeeps
p131
I3527
sVdemocratic
p132
I585
sVnonsensical
p133
I7491
sVwing
p134
I1673
sVwind
p135
I2295
sVdisengaging
p136
I7799
sVsenators
p137
I3321
sVsistani
p138
I6788
sVconfederate
p139
I5470
sVbarclays
p140
I6348
sVrewarded
p141
I6110
sVconned
p142
I7652
sVsurvivors
p143
I3156
sVwales
p144
I2316
sVeasier
p145
I2939
sVeffects
p146
I1986
sVschools
p147
I869
sVsilver
p148
I1797
sVwhitman
p149
I5965
sVrepresents
p150
I2510
sVdebut
p151
I1538
sVarmoured
p152
I6209
sV4-year-old
p153
I7903
sVpreceded
p154
I5982
sVfinancial
p155
I393
sVseries
p156
I279
sV250,000
p157
I4912
sVcushion
p158
I6615
sV2,500
p159
I4988
sVsubstantially
p160
I5109
sVlaboratory
p161
I3505
sVmdp
p162
I7580
sVtruman
p163
I6246
sVring
p164
I2641
sVwhip
p165
I5871
sVwaive
p166
I6923
sVre
p167
I1681
sVencourage
p168
I3092
sVhague
p169
I4621
sV1950-53
p170
I6973
sVengineer
p171
I3339
sVtennessean
p172
I7645
sVfoundation
p173
I1410
sVneedier
p174
I7948
sVassured
p175
I4137
sVthreatened
p176
I1795
sVfugitive
p177
I5809
sVencountering
p178
I7024
sVgrapes
p179
I6274
sVcrowned
p180
I6047
sVestimate
p181
I3034
sVenormous
p182
I3729
sVate
p183
I6026
sVshelves
p184
I6027
sVministries
p185
I5183
sVshipped
p186
I5082
sVmusicians
p187
I3827
sVspeedy
p188
I6277
sV1970s
p189
I2377
sVr.
p190
I3033
sVstate-run
p191
I7564
sVwash
p192
I5638
sV175
p193
I5942
sVbitten
p194
I6946
sVnurul
p195
I7723
sVolds
p196
I6112
sVbasketball
p197
I1701
sVservice
p198
I269
sVlawsuits
p199
I4272
sVengagement
p200
I4668
sVneeded
p201
I890
sVmaster
p202
I2167
sVlisted
p203
I1644
sVlegs
p204
I3623
sVbitter
p205
I3704
sVranging
p206
I3306
sVlisten
p207
I3935
sVdanish
p208
I3357
sVrewards
p209
I6097
sVcollapse
p210
I2540
sVgeneva
p211
I3521
sVcocktails
p212
I6904
sVmutilated
p213
I6948
sVahmed
p214
I2851
sVshowed
p215
I876
sVsaeed
p216
I6307
sVtree
p217
I2433
sVnations
p218
I469
sVproject
p219
I707
sVseven-month
p220
I7827
sVseminary
p221
I5514
sVfeeling
p222
I2322
sVacquisition
p223
I3432
sVunintended
p224
I6896
sVboston
p225
I1090
sVlongo
p226
I7366
sVextremist
p227
I4866
sVdozen
p228
I1943
sVaffairs
p229
I1172
sVmaj.
p230
I4977
sVresponsible
p231
I1390
sVrecommended
p232
I3307
sVcausing
p233
I2597
sVdoors
p234
I3314
sVlayoffs
p235
I5457
sVkremlin
p236
I4088
sVshipments
p237
I4954
sVcommitting
p238
I5546
sVshall
p239
I4135
sVobject
p240
I3757
sVautomaker
p241
I4969
sVvictoria
p242
I3170
sVswiss
p243
I1756
sVhushing
p244
I7904
sVmouth
p245
I3493
sVletter
p246
I1222
sVorganization
p247
I724
sVdrought
p248
I4319
sVsinger
p249
I2075
sVcops
p250
I6389
sVprofessor
p251
I1244
sVcamp
p252
I1143
sV17,000-strong
p253
I7742
sVasif
p254
I6671
sVcame
p255
I262
sVsaying
p256
I343
sVbomb
p257
I1177
sVreactor
p258
I4573
sVmeetings
p259
I1881
sVqaeda
p260
I3126
sVparticipate
p261
I2763
sVlethal
p262
I5210
sVbusy
p263
I3553
sVskirmishes
p264
I6795
sVheadline
p265
I4816
sVcousins
p266
I6371
sVbust
p267
I5938
sVtheme
p268
I2685
sVrice
p269
I1727
sVumbilical
p270
I7319
sVpsychiatric
p271
I5811
sVpocket
p272
I4569
sVreversal
p273
I6283
sValtogether
p274
I5108
sVlooting
p275
I5919
sVgreens
p276
I4945
sVthree-year
p277
I6748
sVrelease
p278
I704
sVrespond
p279
I2955
sVblew
p280
I4183
sVmandatory
p281
I4931
sVdisaster
p282
I2224
sVfair
p283
I1703
sVsensitivity
p284
I5950
sVtransferred
p285
I2745
sVresult
p286
I703
sVfail
p287
I3610
sVresigned
p288
I2798
sVhammer
p289
I5203
sVbest
p290
I253
sVambitions
p291
I5132
sVlots
p292
I3536
sVirs
p293
I5629
sVdroves
p294
I7148
sVscore
p295
I1581
sVadnan
p296
I6760
sVpreserve
p297
I3982
sVwage
p298
I3533
sVmen
p299
I299
sVnationwide
p300
I2631
sVnature
p301
I1664
sVrolled
p302
I4461
sVfelony
p303
I6126
sVchaubey
p304
I7943
sVextent
p305
I3395
sVdebt
p306
I1344
sVqalqiliya
p307
I7495
sVaccident
p308
I1852
sVbrown
p309
I1015
sVcountry
p310
I123
sVadventures
p311
I5209
sVdemanded
p312
I2522
sV1,750
p313
I7419
sVplanned
p314
I1031
sVsurprises
p315
I6310
sVargue
p316
I3459
sVasked
p317
I474
sVtwenty-three
p318
I7363
sVtareq
p319
I7207
sV2nd
p320
I2523
sVblending
p321
I6936
sV250
p322
I3167
sVana
p323
I5518
sVangel
p324
I4110
sVreconsideration
p325
I7420
sVeager
p326
I4056
sVunion
p327
I352
sVkhaled
p328
I6339
sVcriticised
p329
I5028
sV.
p330
I3
sVmuch
p331
I181
sVlife
p332
I214
sVsydney
p333
I2281
sVeastern
p334
I812
sVqusai
p335
I7430
sVworker
p336
I2855
sVfilmmaker
p337
I5601
sVmoneys
p338
I7763
sVsubstance
p339
I4363
sVomnimedia
p340
I7622
sVchild
p341
I940
sVworked
p342
I752
sVchill
p343
I6475
sVcommerce
p344
I2139
sVpresidency
p345
I2327
sVorganisers
p346
I5981
sVemploy
p347
I5656
sVpleads
p348
I6808
sVgerhard
p349
I5872
sVflooding
p350
I4045
sVridiculously
p351
I7352
sVmid-may
p352
I7627
sVplayed
p353
I332
sVuday
p354
I7144
sVplayer
p355
I641
sVeighteen
p356
I6082
sVupscale
p357
I6260
sVlevied
p358
I6884
sVcampaigning
p359
I4665
sVtrustee
p360
I6432
sVhong
p361
I719
sVthings
p362
I646
sVtelecinco
p363
I7722
sVdamages
p364
I4094
sVbabies
p365
I4644
sVrebound
p366
I4207
sVeuropean
p367
I289
sVfairly
p368
I3735
sVmarches
p369
I6437
sVmarched
p370
I4690
sVkiichiro
p371
I7930
sVownership
p372
I3355
sVtune
p373
I4927
sVechoed
p374
I5354
sVfanatically
p375
I7777
sVby-elections
p376
I7499
sVcorporate
p377
I1594
sVopinions
p378
I4674
sVcapitol
p379
I3563
sVdistribute
p380
I5505
sVbirmingham
p381
I4125
sVplight
p382
I5870
sVrushing
p383
I4796
sVprevious
p384
I760
sVhan
p385
I4858
sVdeters
p386
I7630
sVhad
p387
I40
sVinnocent
p388
I3456
sVprison
p389
I973
sVhas
p390
I31
sVhat
p391
I4306
sVmunicipal
p392
I2757
sVcasually
p393
I6921
sVsurvival
p394
I4139
sVposed
p395
I4615
sVpossible
p396
I551
sVpossibly
p397
I2384
sVbirth
p398
I2395
sVunique
p399
I2702
sVdesire
p400
I3057
sVpsychological
p401
I4298
sVremind
p402
I5839
sVsteps
p403
I1896
sVbattlefield
p404
I5568
sVattorney
p405
I1189
sVright
p406
I247
sVold
p407
I167
sVcreek
p408
I3071
sVcrowd
p409
I1612
sVpeople
p410
I69
sVczech
p411
I2147
sVbillboard
p412
I4064
sVfor
p413
I10
sVbottom
p414
I2218
sVhulks
p415
I7631
sVfox
p416
I1978
sVp.m.
p417
I1138
sVfoe
p418
I6405
sVcontinue
p419
I651
sVfrum
p420
I7720
sVpondered
p421
I7206
sVumm
p422
I6937
sVannan
p423
I3009
sV24-hour
p424
I5933
sV6,000
p425
I4523
sVbrigades
p426
I5626
sVdefensive
p427
I2562
sVlosing
p428
I1467
sVbrokerage
p429
I4802
sVterraced
p430
I7324
sVmanufacturing
p431
I2413
sVdollars
p432
I229
sVcitizens
p433
I1506
sVo
p434
I3900
sVkilgore
p435
I7342
sVpalestinians
p436
I1147
sVrebut
p437
I7353
sVnixon
p438
I4337
sVraised
p439
I1042
sVstatements
p440
I2688
sVfacility
p441
I2274
sVmarshall
p442
I3812
sVson
p443
I623
sVbeings
p444
I5654
sVraises
p445
I4312
sVdefendants
p446
I3966
sVsupport
p447
I278
sVrabbo
p448
I7042
sVraped
p449
I5804
sVjoseph
p450
I1860
sVresulted
p451
I2749
sVtele
p452
I6981
sVlaunching
p453
I4199
sVhappy
p454
I1669
sVinsurrection
p455
I6880
sVoffer
p456
I881
sVforming
p457
I4037
sVtalents
p458
I5860
sVnov.
p459
I2176
sVinside
p460
I1011
sVdevices
p461
I3025
sVsmashed
p462
I5516
sV150
p463
I2350
sVlater
p464
I168
sVliberal
p465
I2032
sVsight
p466
I3907
sVtournament
p467
I1009
sVproven
p468
I4454
sV''
p469
I27
sVproves
p470
I5838
sVexist
p471
I3118
sVtwo-day
p472
I7472
sVdealer
p473
I4387
sVnegotiations
p474
I1171
sVposting
p475
I5195
sVprotested
p476
I5004
sVmelanoma
p477
I7186
sVeventual
p478
I4788
sVfloor
p479
I1519
sVhypocrisy
p480
I6878
sVflood
p481
I3192
sVrole
p482
I540
sVdevelopers
p483
I4746
sVroll
p484
I2912
sV's
p485
I9
sVmodels
p486
I2468
sVtransported
p487
I5372
sV'd
p488
I1118
sVinvested
p489
I4210
sVrolling
p490
I3723
sV'm
p491
I470
sVexplosions
p492
I4400
sVshootout
p493
I5438
sVspades
p494
I7362
sVhighness
p495
I7229
sVtime
p496
I79
sVpush
p497
I1858
sVoverturned
p498
I5358
sVgown
p499
I6665
sVcorps
p500
I2578
sVwhoever
p501
I5795
sVchair
p502
I3282
sVdavao
p503
I7126
sVbribes
p504
I5740
sVwilliam
p505
I1043
sVveterans
p506
I3174
sVself-dealing
p507
I7993
sVallegations
p508
I2051
sVtwo-way
p509
I7382
sVspate
p510
I6222
sVchoice
p511
I1600
sVembark
p512
I6754
sVstays
p513
I5237
sVcorp.
p514
I992
sVminute
p515
I1180
sVreining
p516
I7227
sVleave
p517
I872
sVsettle
p518
I3134
sVsubway
p519
I4418
sVteam
p520
I145
sVspeculation
p521
I3001
sVprevent
p522
I1396
sVspiritual
p523
I3569
sVfindings
p524
I3423
sVsign
p525
I1069
sVchopping
p526
I7128
sVcrescent
p527
I6312
sVabdullah
p528
I3094
sVcurrent
p529
I531
sVbeasley
p530
I7047
sVfalling
p531
I2164
sVcrashing
p532
I6333
sVboost
p533
I1838
sVjunk
p534
I6054
sVdrafted
p535
I4165
sVjury
p536
I2241
sVhonour
p537
I4776
sVfuneral
p538
I3250
sVunderstanding
p539
I2579
sVaddress
p540
I1419
sValone
p541
I1427
sValong
p542
I383
sVbenson
p543
I6122
sVpassengers
p544
I1798
sVredemption
p545
I6585
sVbrilliant
p546
I4731
sVfunded
p547
I3611
sVmyers
p548
I5053
sVstudies
p549
I1334
sVconcealed
p550
I6433
sVlove
p551
I819
sVprefer
p552
I4375
sVbloody
p553
I3788
sVfake
p554
I4684
sVforefront
p555
I6494
sVrelating
p556
I5052
sVred
p557
I632
sVopposes
p558
I4996
sVworking
p559
I498
sVpositive
p560
I1295
sVangry
p561
I2985
sVcrystalized
p562
I7883
sVopposed
p563
I1917
sVwondering
p564
I5694
sVfilms
p565
I1523
sVscope
p566
I4574
sVresuscitation
p567
I7438
sVprosecutor
p568
I2497
sVloving
p569
I5578
sV``
p570
I28
sVafford
p571
I3555
sVapparent
p572
I3022
sVoregon
p573
I3305
sVapproving
p574
I6451
sVeverywhere
p575
I4155
sVdegrade
p576
I7283
sVnasiriyah
p577
I7052
sVbehalf
p578
I3116
sVtobacco
p579
I2828
sVvalued
p580
I4480
sVdeserved
p581
I5712
sVoriginally
p582
I1395
sVabortion
p583
I3041
sVbelieves
p584
I2121
sVbelieved
p585
I1025
sVgunfire
p586
I4933
sVadmired
p587
I6258
sVparachute
p588
I6535
sVallowed
p589
I868
sVstole
p590
I5419
sVmonitoring
p591
I3091
sVwinter
p592
I1535
sVdivided
p593
I2058
sVvancouver
p594
I3895
sVs.
p595
I2361
sVcoleman
p596
I5467
sVlaundry
p597
I6529
sVexplorer
p598
I5499
sVrigors
p599
I7335
sVspot
p600
I1752
sVfueled
p601
I4917
sVdate
p602
I1221
sVsuch
p603
I125
sVrevealed
p604
I2266
sVstress
p605
I3470
sVnatural
p606
I1099
sVsectors
p607
I3475
sVsr
p608
I6266
sVwheelchair
p609
I6035
sVso
p610
I100
sVtruce
p611
I3925
sVpulled
p612
I2089
sVse
p613
I5059
sVunsolicited
p614
I6986
sVinsurgency
p615
I3706
sVunacceptable
p616
I4840
sVyears
p617
I82
sVhiring
p618
I4430
sVepisodes
p619
I3288
sVomitting
p620
I7439
sVtore
p621
I5913
sVmilken
p622
I7299
sVthumb
p623
I6067
sVinternationally
p624
I4232
sVtorn
p625
I3909
sVtroubles
p626
I4600
sVlouisville
p627
I5816
sVaviv
p628
I4572
sVcovertly
p629
I7306
sVsuspicion
p630
I4341
sVsuspension
p631
I3440
sVtroubled
p632
I3132
sVdecades
p633
I1373
sVrecipients
p634
I5453
sVcivilian
p635
I1976
sVverdicts
p636
I6752
sVnation
p637
I511
sVrecords
p638
I1028
sVarriving
p639
I3737
sVin-laws
p640
I7709
sVfla
p641
I6885
sVshouted
p642
I5081
sVestablishing
p643
I4004
sVamnesty
p644
I3854
sVquarter
p645
I546
sVrepaired
p646
I6228
sVquartet
p647
I5155
sVsquare
p648
I1214
sVirina
p649
I6798
sVbreakthrough
p650
I4386
sVentering
p651
I2927
sVsexually
p652
I5009
sVpresaged
p653
I7636
sVcontainer
p654
I5382
sV@
p655
I6763
sVseriously
p656
I2320
sVinvestigation
p657
I948
sVtrauma
p658
I5907
sVinternet
p659
I904
sVsuggesting
p660
I3832
sVsiege
p661
I4075
sVmillion
p662
I93
sVseventh
p663
I2245
sVgoverning
p664
I2942
sVquite
p665
I1614
sVpled
p666
I7496
sVlucrative
p667
I4920
sVbesides
p668
I3120
sVpyle
p669
I7329
sVremainder
p670
I4657
sVseventy
p671
I6630
sVtraining
p672
I775
sVanne-marie
p673
I7732
sVprogramming
p674
I3299
sVinitiate
p675
I6541
sVgordon
p676
I2913
sVthurmond
p677
I6971
sVroutes
p678
I3386
sVrumsfeld
p679
I4216
sVinfo
p680
I6538
sVsaving
p681
I3867
sVspoken
p682
I3497
sVpotter
p683
I5163
sVone
p684
I48
sVfund-raiser
p685
I7846
sVspecifically
p686
I3093
sVspanish
p687
I1108
sVvote
p688
I536
sVopen
p689
I308
sVcity
p690
I115
sVoperable
p691
I7708
sVindicate
p692
I3690
sV2
p693
I231
sVdraft
p694
I1655
sVshoppers
p695
I5538
sVbits
p696
I5682
sVcite
p697
I6338
sVwilliams
p698
I1279
sVridiculous
p699
I6002
sVrepresenting
p700
I2768
sVsilvan
p701
I7122
sVnine-year
p702
I7680
sVivanov
p703
I5622
sVrival
p704
I1663
sVfuture
p705
I577
sVrussia
p706
I410
sVprospect
p707
I3549
sVsai
p708
I6972
sVillness
p709
I3557
sVsan
p710
I607
sVsam
p711
I2892
sVturned
p712
I836
sVargument
p713
I3398
sVsad
p714
I4131
sVsay
p715
I203
sVrained
p716
I6915
sVburied
p717
I2608
sVfoiled
p718
I6610
sVturner
p719
I3938
sVsaw
p720
I806
sVsat
p721
I2858
sVaside
p722
I2677
sVpeacekeeping
p723
I3515
sVnote
p724
I1721
sVintends
p725
I4838
sVtake
p726
I190
sVwanting
p727
I4971
sVconcern
p728
I1272
sVatop
p729
I4952
sVtowers
p730
I4516
sVhanding
p731
I5433
sVopposite
p732
I3247
sVknew
p733
I1460
sVremarks
p734
I2360
sVlawn
p735
I5588
sVfarmlands
p736
I7368
sV8,500
p737
I7004
sVaverage
p738
I634
sVphil
p739
I3510
sVinfections
p740
I5223
sVdrive
p741
I1169
sVdefeating
p742
I4456
sVcushioned
p743
I7509
sVfederal
p744
I345
sVba'asyir
p745
I7608
sVatlantic
p746
I2186
sV30,000
p747
I3772
sVsalt
p748
I2684
sVlaws
p749
I1429
sVwalking
p750
I3070
sVc-17
p751
I7312
sVsurplus
p752
I3746
sVfudge
p753
I7166
sVaggressive
p754
I3065
sVslow
p755
I1928
sVliberation
p756
I2825
sVgoing
p757
I221
sVhockey
p758
I2187
sVoutrage
p759
I5169
sVcaroline
p760
I5769
sVdispute
p761
I1948
sVmisdemeanor
p762
I6640
sVpsychiatrist
p763
I6423
sVassistant
p764
I1609
sVcondemning
p765
I6223
sV8:45
p766
I7436
sVcursing
p767
I7228
sVoutlet
p768
I6013
sV80-year-old
p769
I7924
sVawaiting
p770
I4549
sVprime
p771
I333
sVresource
p772
I4449
sVahmad
p773
I4450
sVworried
p774
I2669
sVpriest
p775
I3582
sVroger
p776
I3202
sVbombs
p777
I2756
sVworries
p778
I3836
sVmarred
p779
I5886
sVwhere
p780
I111
sVvision
p781
I2797
sVespn
p782
I5178
sVimpressions
p783
I6802
sVsurgery
p784
I2283
sVreshuffle
p785
I6503
sVcompounds
p786
I5574
sVjumped
p787
I3017
sVrepresentatives
p788
I1570
sVpreemptive
p789
I7199
sVbureau
p790
I1711
sVdiddly
p791
I7884
sVmurrah
p792
I7289
sVverification
p793
I6417
sVjobs
p794
I1024
sVlast-minute
p795
I7566
sVscreen
p796
I2300
sVconcentrate
p797
I4891
sVawards
p798
I1479
sVjets
p799
I2867
sVundermine
p800
I4736
sVconcentrated
p801
I4895
sVoust
p802
I5698
sVmany
p803
I109
sVs
p804
I1472
sVworkplace
p805
I5648
sVmccain
p806
I1937
sVtwin
p807
I3726
sVsupervisor
p808
I5340
sVcokes
p809
I7718
sVconsiders
p810
I4152
sVboat
p811
I2208
sVwest
p812
I258
sVlocally
p813
I4592
sVairlines
p814
I1779
sVconcede
p815
I6410
sVbreath
p816
I5402
sVcombined
p817
I1952
sVmotives
p818
I6154
sVprototype
p819
I5794
sVwants
p820
I998
sVlanes
p821
I5948
sVinfluence
p822
I1648
sVthousand
p823
I3461
sVformed
p824
I1304
sVwalmart
p825
I7348
sVlaney
p826
I7423
sVcurbing
p827
I6673
sVphotos
p828
I2447
sVobserve
p829
I5481
sVformer
p830
I157
sVbroker-dealer
p831
I7896
sVconsultant
p832
I3789
sVtribal
p833
I3361
sVpolls
p834
I1740
sVprominence
p835
I5962
sVengineering
p836
I2292
sVpolicies
p837
I1660
sVblackhawk
p838
I7332
sVnewspaper
p839
I804
sVsituation
p840
I781
sVendured
p841
I5927
sVspotlight
p842
I5045
sVjericho
p843
I6511
sVengaged
p844
I2953
sVtechnology
p845
I722
sVfame
p846
I2806
sVmissiles
p847
I2831
sVnuptials
p848
I7537
sVthreatens
p849
I4860
sVpreparatory
p850
I6195
sVbreakdown
p851
I5322
sVputin
p852
I2490
sVedged
p853
I4351
sVsingapore
p854
I1309
sVboosted
p855
I4382
sVsavidge
p856
I7921
sVharris
p857
I3206
sVbooster
p858
I6693
sV60,000
p859
I5035
sVcosts
p860
I1105
sVtrains
p861
I2924
sVsummer
p862
I730
sVsteamed
p863
I6842
sVbeing
p864
I134
sVrest
p865
I1006
sVinaudible
p866
I7640
sVrover
p867
I6399
sVkhatami
p868
I5645
sVcontesting
p869
I6801
sVoverthrow
p870
I5529
sVskies
p871
I5583
sVaspects
p872
I3642
sVaround
p873
I204
sVsportsmanship
p874
I7204
sVsums
p875
I6146
sVdark
p876
I2083
sVtraffic
p877
I1530
sVpreference
p878
I5755
sVba'athists
p879
I7881
sVworld
p880
I85
sVboycotted
p881
I6421
sVclan
p882
I4646
sVsatisfaction
p883
I5484
sVintel
p884
I4208
sVtsunami
p885
I4391
sVoffenders
p886
I5625
sVgrouping
p887
I6106
sVobstruct
p888
I7030
sVsuperintendent
p889
I5156
sVlebanon
p890
I1558
sVbrits
p891
I7205
sVracial
p892
I3018
sVthinks
p893
I3514
sVscandals
p894
I5141
sVintensifies
p895
I7159
sVmemories
p896
I4189
sVtube
p897
I5060
sVfrancois
p898
I5584
sVrefer
p899
I1815
sVbiased
p900
I6562
sVscientific
p901
I2261
sVpower
p902
I267
sVindustrialized
p903
I6031
sVtv2
p904
I7571
sVleadership
p905
I1312
sVthailand
p906
I1551
sVpunishments
p907
I6805
sVstone
p908
I2017
sVace
p909
I5144
sVpackage
p910
I1957
sVindustry
p911
I457
sVmeal
p912
I4880
sVacs
p913
I7347
sVneighbor
p914
I4264
sVact
p915
I733
sVluck
p916
I4271
sVtripura
p917
I7343
sVknifing
p918
I7780
sVfundraising
p919
I5986
sViliescu
p920
I7155
sVhomeless
p921
I4228
sVparties
p922
I913
sVtechnically
p923
I5338
sVher
p924
I71
sV10000
p925
I7533
sVphiladelphia
p926
I2056
sVbedeviled
p927
I7397
sVmindless
p928
I7217
sVsealed
p929
I4345
sVinnovated
p930
I7756
sVlang
p931
I6049
sVcomplete
p932
I1296
sVmourns
p933
I7247
sVsurvived
p934
I2726
sV507
p935
I7394
sVtechnologies
p936
I3354
sVwith
p937
I17
sVbuying
p938
I2049
sVpull
p939
I2644
sVrush
p940
I3377
sVoctober
p941
I476
sVmonopoly
p942
I5078
sVdirty
p943
I4620
sVabuses
p944
I4320
sVpolitically
p945
I3316
sVagree
p946
I2004
sVmisery
p947
I6360
sVgone
p948
I1465
sVdovish
p949
I7160
sVcitizenship
p950
I4291
sVai
p951
I5310
sVah
p952
I2753
sVak
p953
I6809
sVstealing
p954
I5329
sVam
p955
I892
sVal
p956
I316
sVwartime
p957
I5127
sVan
p958
I29
sVap
p959
I1518
sVas
p960
I19
sVau
p961
I4342
sVat
p962
I22
sVwatched
p963
I2796
sVoverfunded
p964
I7915
sVaz
p965
I6811
sVtight
p966
I2827
sVimplied
p967
I6340
sVphenom
p968
I7456
sVcongress
p969
I595
sV2005
p970
I700
sVwaving
p971
I5594
sVoracle
p972
I5655
sVterry
p973
I3752
sVscuds
p974
I7605
sVgroom
p975
I6743
sVazhar
p976
I7029
sVmimic
p977
I6890
sVmass
p978
I1289
sVnelson
p979
I3089
sVoriginal
p980
I908
sVwaiver
p981
I6633
sV9/11
p982
I5696
sVconsider
p983
I1504
sVcaused
p984
I1067
sVtours
p985
I3930
sVrestated
p986
I7135
sVwelfare
p987
I2713
sVhalsey
p988
I7386
sVcauses
p989
I2811
sVimproperly
p990
I6473
sVsecretary-general
p991
I7013
sVcareful
p992
I4296
sVhunting
p993
I3657
sVtv
p994
I801
sVcheney
p995
I3826
sVskit
p996
I7263
sVhillsborough
p997
I6876
sVto
p998
I5
sVsmile
p999
I4546
sVmidwest
p1000
I5188
sVnorm
p1001
I6037
sVpaying
p1002
I2474
sVlaser-guided
p1003
I7829
sVappointment
p1004
I3420
sVreturned
p1005
I817
sV1,506
p1006
I7892
sVdetention
p1007
I3165
sVbaton
p1008
I6379
sVdonahue
p1009
I6995
sV24th
p1010
I6200
sVcondition
p1011
I1183
sVillustrated
p1012
I4911
sVsans
p1013
I6868
sVcable
p1014
I2209
sVlaying
p1015
I5271
sVjoined
p1016
I1003
sVlarge
p1017
I424
sVsand
p1018
I4069
sVadjust
p1019
I5501
sVsmall
p1020
I355
sVsank
p1021
I4552
sVmosul
p1022
I5710
sVvioxx
p1023
I6954
sV190
p1024
I5924
sVpast
p1025
I339
sVpass
p1026
I1242
sVassaults
p1027
I6190
sVdestitute
p1028
I7037
sVinvestment
p1029
I771
sVrichard
p1030
I1153
sVclock
p1031
I3961
sVsufyan
p1032
I7785
sVsection
p1033
I1458
sVperuggi
p1034
I7997
sVscientists
p1035
I2016
sVnurse
p1036
I4856
sVmethod
p1037
I2873
sVfull
p1038
I547
sVinstallations
p1039
I5650
sVlobbyist
p1040
I6334
sVhours
p1041
I599
sVcivilians
p1042
I1700
sVconcluding
p1043
I6256
sVnovember
p1044
I485
sVlegend
p1045
I3848
sVbremner
p1046
I7655
sVcompliance
p1047
I4863
sVbrutal
p1048
I4489
sVprior
p1049
I1883
sVacquittal
p1050
I6764
sVpick
p1051
I1940
sVaction
p1052
I601
sVskepticism
p1053
I6087
sVanbar
p1054
I6530
sVvia
p1055
I1851
sVfollowed
p1056
I907
sVours
p1057
I6380
sVmarriages
p1058
I5472
sVbyrd
p1059
I6206
sVregiment
p1060
I3449
sVviz
p1061
I7256
sVselect
p1062
I4282
sVbruhl
p1063
I7927
sVpearl
p1064
I4358
sV6
p1065
I522
sVbeatriz
p1066
I7494
sVmore
p1067
I56
sVteen
p1068
I3277
sVdoor
p1069
I1794
sVcompany
p1070
I128
sVwaterways
p1071
I6762
sVellison
p1072
I6676
sVak-47s
p1073
I7455
sVfoundations
p1074
I5421
sVobjections
p1075
I5110
sVparse
p1076
I7589
sVkeeping
p1077
I2117
sVanxieties
p1078
I7071
sVscience
p1079
I1088
sVshrestha
p1080
I7450
sVmall
p1081
I3915
sVresources
p1082
I1477
sVmorgan
p1083
I2786
sVlearn
p1084
I2200
sVknocked
p1085
I4012
sVmale
p1086
I2157
sVbeautiful
p1087
I2959
sVstated
p1088
I2148
sVsuggestions
p1089
I4843
sVclotheslines
p1090
I7862
sVaccept
p1091
I1770
sVmilitary-backed
p1092
I7985
sVstates
p1093
I112
sVbiden
p1094
I5535
sVfiercely
p1095
I6308
sV'91
p1096
I7692
sVsense
p1097
I1335
sVstation
p1098
I513
sVdress
p1099
I3778
sVcondemn
p1100
I5554
sVhuge
p1101
I1285
sVrespective
p1102
I4829
sVimminent
p1103
I5076
sVreprimanded
p1104
I7034
sVdismissed
p1105
I2601
sVreyes
p1106
I5977
sVtoyoda
p1107
I7231
sVwaved
p1108
I5906
sVplant
p1109
I1156
sVseoul
p1110
I3060
sVplane
p1111
I1275
sVethics
p1112
I4148
sVrefuse
p1113
I4702
sVjiang
p1114
I3709
sVvolleyball
p1115
I5067
sVfundamental
p1116
I3667
sVgeographic
p1117
I5342
sVreplied
p1118
I4138
sVmoussa
p1119
I6286
sVtrade
p1120
I310
sVattitude
p1121
I3509
sVembassy
p1122
I1754
sVscott
p1123
I1799
sVsigns
p1124
I1773
sVbulldozers
p1125
I6741
sVbroadway
p1126
I3473
sVsmiling
p1127
I5555
sVits
p1128
I47
sVrapidly
p1129
I3273
sVpronto
p1130
I7644
sVgerald
p1131
I5257
sVbypass
p1132
I5766
sVtravelling
p1133
I5152
sVally
p1134
I3161
sVcolleague
p1135
I5026
sVrapier
p1136
I7663
sVskipped
p1137
I6612
sVentire
p1138
I1398
sVparaplegic
p1139
I7585
sVharrod
p1140
I7737
sVretaliated
p1141
I6883
sVsen.
p1142
I1749
sVdesignation
p1143
I5319
sVcoping
p1144
I6727
sValways
p1145
I681
sVnonaggression
p1146
I7579
sVfound
p1147
I237
sVshocking
p1148
I6017
sVinvestigators
p1149
I2098
sVreactions
p1150
I5168
sVengland
p1151
I559
sVosaka
p1152
I5821
sVreduce
p1153
I1605
sVpolice
p1154
I142
sVoperation
p1155
I933
sVreally
p1156
I583
sVtry
p1157
I825
sVpsychology
p1158
I4888
sVblacks
p1159
I3661
sVhigh-stakes
p1160
I7839
sVresearch
p1161
I518
sVfta
p1162
I6796
sVministerial
p1163
I4981
sVplotting
p1164
I5520
sVhighway
p1165
I1789
sVcockpit
p1166
I6167
sVbungled
p1167
I7153
sVimagine
p1168
I3860
sVrises
p1169
I3914
sVsurface-to-air
p1170
I7658
sVdefinition
p1171
I3840
sVowners
p1172
I2077
sVretained
p1173
I4169
sVbumper
p1174
I6564
sVstennis
p1175
I7623
sVmajor
p1176
I223
sVwilder
p1177
I6736
sVnumber
p1178
I222
sVpreservation
p1179
I5134
sVdinger
p1180
I7681
sVanonymity
p1181
I2387
sVcontended
p1182
I6057
sVstage
p1183
I891
sVguess
p1184
I3985
sVheads
p1185
I1876
sVguest
p1186
I2996
sVjet
p1187
I2997
sVarlington
p1188
I5536
sVunsafe
p1189
I6493
sVthreatening
p1190
I3294
sVcheckpoint
p1191
I5417
sVsaint
p1192
I2517
sVrelationship
p1193
I1425
sVinterviewed
p1194
I4022
sVimmediate
p1195
I1843
sVappreciation
p1196
I5116
sVfocusing
p1197
I3996
sVunrealistic
p1198
I6628
sVcritically
p1199
I5365
sViranian
p1200
I1768
sVcondolences
p1201
I6065
sVkreme
p1202
I7554
sVal-ahram
p1203
I7870
sVvocal
p1204
I4257
sVminimize
p1205
I6111
sVdetermined
p1206
I2036
sVemirates
p1207
I4462
sVbeneficial
p1208
I5768
sVremembers
p1209
I5611
sVfights
p1210
I4810
sVorganisations
p1211
I4857
sVguarding
p1212
I6313
sVsell
p1213
I1208
sVshiites
p1214
I5564
sVcarnival
p1215
I5752
sVself
p1216
I1437
sValso
p1217
I52
sVrecognizing
p1218
I6064
sVinternal
p1219
I2029
sVplay
p1220
I280
sV20-year-old
p1221
I7664
sVvirus
p1222
I2502
sVplan
p1223
I392
sVsingled
p1224
I5436
sVunequal
p1225
I7057
sVseize
p1226
I4937
sVsometimes
p1227
I1040
sVcover
p1228
I1293
sVstoning
p1229
I7076
sVhamid
p1230
I4836
sVbarred
p1231
I4384
sVlounge
p1232
I6344
sVresearchers
p1233
I2417
sVdragged
p1234
I5084
sVdespise
p1235
I7427
sVgolf
p1236
I1955
sVgold
p1237
I754
sVuga
p1238
I7308
sVhoisted
p1239
I6914
sVmoroccan
p1240
I5504
sVdefended
p1241
I3513
sVsession
p1242
I1322
sVindias
p1243
I7662
sVentity
p1244
I5118
sVgissin
p1245
I7131
sVoverwhelmed
p1246
I5679
sVoccupation
p1247
I2960
sVpleaded
p1248
I3803
sVwrites
p1249
I2739
sVwriter
p1250
I1478
sVclothesline
p1251
I7725
sVfailed
p1252
I832
sVwayne
p1253
I3672
sVfactor
p1254
I2733
sVcolumns
p1255
I5204
sVafrican-americans
p1256
I7477
sVdependent
p1257
I4563
sVbeams
p1258
I6636
sVsecular
p1259
I4507
sVninth
p1260
I2740
sVclosely
p1261
I2229
sVreporters
p1262
I843
sVsunni
p1263
I3123
sVdistraction
p1264
I6623
sVenemy
p1265
I2639
sVcry
p1266
I4949
sVbanking
p1267
I1997
sVsurrendering
p1268
I6859
sVcouriers
p1269
I7431
sVobscure
p1270
I6018
sVriver
p1271
I613
sVapproaching
p1272
I4885
sVset
p1273
I208
sVadopt
p1274
I4003
sVcreator
p1275
I5408
sVactivists
p1276
I2414
sVsex
p1277
I1657
sVcollectively
p1278
I6193
sVsee
p1279
I252
sVsec
p1280
I3702
sVsea
p1281
I915
sVinstitutes
p1282
I5695
sVknees
p1283
I5944
sVspirits
p1284
I5283
sVmovie
p1285
I981
sVcurrently
p1286
I823
sVrejecting
p1287
I5822
sVknowing
p1288
I3893
sVsabliere
p1289
I7500
sVtargeted
p1290
I2961
sVlem
p1291
I7511
sVincident
p1292
I1517
sVrenewed
p1293
I3345
sVlegislature
p1294
I2635
sVprospects
p1295
I3435
sVevaporated
p1296
I6984
sVlast
p1297
I76
sVbarely
p1298
I3541
sVconnection
p1299
I2343
sVlong-term
p1300
I6293
sVwhole
p1301
I1083
sVload
p1302
I4671
sVvisionaries
p1303
I7576
sVbell
p1304
I2628
sVloan
p1305
I2107
sVnortheastern
p1306
I3879
sVdarlene
p1307
I7388
sVallegiance
p1308
I6386
sVleon
p1309
I4932
sVcoincidence
p1310
I6553
sVagents
p1311
I1975
sVchurch
p1312
I510
sVbelt
p1313
I4025
sVdevil
p1314
I4813
sVpublishing
p1315
I3155
sVacceptance
p1316
I4806
sVanti-aircraft
p1317
I7018
sVhitting
p1318
I2799
sVsuburbs
p1319
I4502
sVassassinated
p1320
I5708
sVfirm
p1321
I977
sVfire
p1322
I482
sVfund
p1323
I855
sVrepresentative
p1324
I1923
sVspearheaded
p1325
I6604
sVtowns
p1326
I2293
sVconsulate
p1327
I5607
sVpackers
p1328
I5868
sVhandling
p1329
I3201
sVuncertain
p1330
I4367
sVjudicial
p1331
I3236
sVstraight
p1332
I1318
sVexpanded
p1333
I2586
sVbudget
p1334
I816
sVerror
p1335
I3444
sVscheduled
p1336
I1012
sVpound
p1337
I3119
sVhoping
p1338
I2475
sVbacking
p1339
I3029
sVaveraging
p1340
I5706
sVowen
p1341
I4976
sVcoca-cola
p1342
I7151
sVchase
p1343
I3525
sVfunny
p1344
I4223
sVread
p1345
I1409
sVvirtually
p1346
I2943
sVoffence
p1347
I6550
sVsurvey
p1348
I1597
sVd.c.
p1349
I3023
sVsnail
p1350
I6248
sVflooded
p1351
I4993
sVcomprehensive
p1352
I3240
sVdefeat
p1353
I1748
sVshaarei
p1354
I7929
sValert
p1355
I3148
sVfleischer
p1356
I6185
sVlevels
p1357
I1363
sVrabid
p1358
I7239
sVnecessity
p1359
I5888
sVimplement
p1360
I3780
sVinfamous
p1361
I6015
sVrecent
p1362
I395
sVevacuating
p1363
I6926
sVperson
p1364
I879
sVkelly
p1365
I3221
sVclearance
p1366
I5914
sVrudolph
p1367
I5875
sVhypothesized
p1368
I7307
sVmilitiamen
p1369
I5758
sVousting
p1370
I6792
sVa-10s
p1371
I7835
sVover-zealous
p1372
I7982
sVamr
p1373
I6121
sVbladders
p1374
I7695
sVbrigade
p1375
I3603
sVfitting
p1376
I6055
sVrangers
p1377
I2759
sVparents
p1378
I1077
sVlocation
p1379
I1924
sVhomeland
p1380
I3342
sVinput
p1381
I5304
sV500-pound
p1382
I7536
sVsurprised
p1383
I3085
sVindonesian
p1384
I2435
sVaustralia
p1385
I596
sVvictims
p1386
I1182
sVemergency
p1387
I1313
sVdemands
p1388
I2119
sVcouple
p1389
I1294
sVmassud
p1390
I7632
sVsuffering
p1391
I2428
sVhooters
p1392
I7480
sVbuyout
p1393
I6254
sVformal
p1394
I2487
sVimposed
p1395
I2536
sVcommunications
p1396
I1821
sVindividuals
p1397
I1930
sVtribes
p1398
I4411
sVnames
p1399
I1412
sVsenate
p1400
I738
sVspring
p1401
I1448
sVpalm
p1402
I2852
sVmideast
p1403
I4157
sVcurious
p1404
I5787
sVbattalion
p1405
I3891
sVijn
p1406
I7642
sVand/or
p1407
I5618
sVreligion
p1408
I2568
sVprosecuted
p1409
I5911
sVtemple
p1410
I2398
sVbe
p1411
I30
sVtankers
p1412
I6575
sVba
p1413
I5613
sVidealistic
p1414
I7136
sVagreement
p1415
I545
sVnowhere
p1416
I4936
sVanimating
p1417
I7678
sVcarol
p1418
I5247
sVby
p1419
I21
sVsukarnoputri
p1420
I6991
sVanything
p1421
I1065
sVwore
p1422
I4007
sVexaggerated
p1423
I6302
sVmelbourne
p1424
I3502
sVdeserves
p1425
I5612
sVambush
p1426
I5605
sVfixed-wing
p1427
I7595
sV12,000
p1428
I5198
sVclinton
p1429
I441
sVcolorado
p1430
I2243
sVterrorists
p1431
I2477
sVhometown
p1432
I4334
sVinto
p1433
I75
sVministers
p1434
I1355
sVosama
p1435
I4182
sVappropriate
p1436
I2986
sVprimarily
p1437
I2569
sVunnerving
p1438
I7327
sVspan
p1439
I4957
sVspending
p1440
I1078
sVsock
p1441
I7109
sVsubmit
p1442
I4619
sVcrackdown
p1443
I3485
sVsuit
p1444
I2339
sV:
p1445
I45
sVopens
p1446
I3258
sVregulator
p1447
I6217
sVelsewhere
p1448
I2424
sVhawaiian
p1449
I6332
sVjewish
p1450
I1278
sVrelaxed
p1451
I5359
sVpastor
p1452
I5083
sVmanipulate
p1453
I6661
sVlink
p1454
I2591
sVcompetition
p1455
I967
sVline
p1456
I329
sVconsiderable
p1457
I3598
sVposted
p1458
I2388
sVcia
p1459
I2916
sVbumpers
p1460
I7295
sVgeraldo
p1461
I7405
sVup
p1462
I60
sVus
p1463
I95
sVur
p1464
I6036
sVum
p1465
I6824
sVun
p1466
I740
sVcustomers
p1467
I1588
sVuh
p1468
I3831
sVuk
p1469
I1926
sVretaliatory
p1470
I6738
sVaerial
p1471
I5352
sVreconcile
p1472
I6543
sVchad
p1473
I4486
sVdefined
p1474
I3204
sVlikewise
p1475
I5685
sVchai
p1476
I6979
sVchan
p1477
I4694
sVglobally
p1478
I6163
sVe-mails
p1479
I7604
sVskimming
p1480
I7282
sVdefines
p1481
I6158
sVfixing
p1482
I5458
sVedwards
p1483
I3310
sVinvalid
p1484
I6641
sVdefinitely
p1485
I3337
sVelements
p1486
I2408
sVprosecution
p1487
I3228
sVbodily
p1488
I6825
sVsides
p1489
I1023
sVago
p1490
I361
sVlane
p1491
I3529
sVland
p1492
I600
sVfighter
p1493
I3062
sVrescued
p1494
I4412
sVwalked
p1495
I2718
sVwatertown
p1496
I7238
sVsummit
p1497
I1039
sVwriter/editor
p1498
I7972
sVwalker
p1499
I3324
sVfresh
p1500
I1809
sVmenace
p1501
I6605
sVhaving
p1502
I516
sVcode
p1503
I2120
sVadvisory
p1504
I3158
sVscooped
p1505
I7060
sVresults
p1506
I597
sVexisting
p1507
I2169
sVhighways
p1508
I4979
sVsofter
p1509
I6635
sV37,000
p1510
I6769
sVstops
p1511
I4051
sVbroader
p1512
I3168
sVshias
p1513
I7660
sVcenters
p1514
I2506
sVseemed
p1515
I1629
sVarchdiocese
p1516
I5808
sVturkish
p1517
I1575
sVconcerned
p1518
I1553
sVyoung
p1519
I459
sVsend
p1520
I1482
sVciting
p1521
I2573
sVworldcom
p1522
I6435
sVindicating
p1523
I4741
sVjurisdiction
p1524
I4589
sVgarden
p1525
I2419
sVtorture
p1526
I3766
sVcontinues
p1527
I1736
sVcontinued
p1528
I744
sVwipe
p1529
I6294
sVmagic
p1530
I3249
sVharbor
p1531
I3754
sVmarry
p1532
I4786
sVeve
p1533
I3519
sVfewer
p1534
I2820
sVanxious
p1535
I5366
sVthreat
p1536
I1270
sVrace
p1537
I568
sVextraditing
p1538
I7512
sVlogistics
p1539
I5644
sV19-year-old
p1540
I7592
sVpledge
p1541
I3933
sVmediterranean
p1542
I3906
sVvideo
p1543
I950
sVmunitions
p1544
I6557
sVodd
p1545
I4750
sVexpressed
p1546
I1349
sVrichmond
p1547
I4634
sVabilene
p1548
I7317
sVindian
p1549
I779
sVturnaround
p1550
I5610
sVflowing
p1551
I5190
sVfirms
p1552
I2064
sVproliferation
p1553
I4896
sVled
p1554
I319
sVlee
p1555
I1095
sVleg
p1556
I2079
sVgathered
p1557
I2655
sVpunch
p1558
I5227
sVleo
p1559
I5308
sVslogans
p1560
I5776
sVlet
p1561
I867
sVconsideration
p1562
I4160
sVfifteen
p1563
I5149
sVparkway
p1564
I6547
sVgreat
p1565
I351
sVengage
p1566
I4186
sVreceive
p1567
I1580
sVinvolved
p1568
I778
sVresulting
p1569
I3076
sVderby
p1570
I3980
sVopinion
p1571
I2026
sV{
p1572
I5396
sVmakes
p1573
I887
sVinvolves
p1574
I3954
sVpanicked
p1575
I6757
sVratcheted
p1576
I7344
sVstanding
p1577
I1683
sVconfidence
p1578
I1452
sVcheered
p1579
I5936
sVcertificate
p1580
I5272
sVillegal
p1581
I1386
sVwhipping
p1582
I6887
sVbush
p1583
I271
sVnext
p1584
I182
sVeleven
p1585
I4513
sVduplicate
p1586
I6723
sVdoubt
p1587
I2364
sVface-to-face
p1588
I7567
sVdoubling
p1589
I6324
sVmidday
p1590
I4983
sVyugoslavian
p1591
I7281
sVoccurred
p1592
I1765
sVdisarming
p1593
I6682
sVcarrying
p1594
I1693
sVsharply
p1595
I2970
sVbaby
p1596
I2080
sValbanians
p1597
I4305
sVcubans
p1598
I6052
sVcharity
p1599
I3445
sVcustomer
p1600
I3506
sV20-day
p1601
I7574
sVpracticing
p1602
I5741
sVretreated
p1603
I5817
sVthis
p1604
I37
sVclients
p1605
I2305
sVinsists
p1606
I3960
sVthin
p1607
I3684
sVdrill
p1608
I5424
sVsaba
p1609
I7043
sVprocess
p1610
I544
sVpurposes
p1611
I3471
sVpieces
p1612
I2513
sVhigh
p1613
I152
sVrods
p1614
I6536
sVmartyr
p1615
I6667
sVdestroying
p1616
I4883
sVdelay
p1617
I2453
sVescalating
p1618
I5842
sVpair
p1619
I2368
sVcorpsmen
p1620
I7847
sVluster
p1621
I7081
sVtestimony
p1622
I2882
sVtied
p1623
I2315
sVdemonstrating
p1624
I6327
sVties
p1625
I1393
sVupstate
p1626
I6618
sVsolidarity
p1627
I4556
sVhensley
p1628
I7286
sVrealized
p1629
I3759
sVboeing
p1630
I2862
sVcounter
p1631
I2910
sVreminders
p1632
I6964
sVacquitted
p1633
I5511
sVallow
p1634
I926
sVcounted
p1635
I4304
sVtransformation
p1636
I5038
sVhouston
p1637
I1885
sVsimilarities
p1638
I6261
sVproducer
p1639
I1839
sVunpalatable
p1640
I7565
sVmove
p1641
I481
sVproduced
p1642
I989
sVmotorcycle
p1643
I5014
sVoperative
p1644
I6382
sVwarren
p1645
I3769
sVperfect
p1646
I2402
sVchosen
p1647
I2555
sV7-year-old
p1648
I7874
sVsurgeons
p1649
I6297
sVmeantime
p1650
I5101
sVthieves
p1651
I6245
sVstalled
p1652
I4383
sVhijackers
p1653
I6020
sVdock
p1654
I5691
sVheavy-handed
p1655
I7757
sVsnake
p1656
I5773
sV1:58
p1657
I7770
sVrealize
p1658
I3532
sVpresidential
p1659
I753
sVwrangles
p1660
I7688
sVirks
p1661
I7713
sVsniffing
p1662
I7031
sVbetty
p1663
I5634
sVtruth
p1664
I2507
sVaccounts
p1665
I2045
sVtracer
p1666
I7503
sVdoing
p1667
I893
sVresupplied
p1668
I7751
sVsociety
p1669
I888
sVbooks
p1670
I1112
sVfraudsters
p1671
I7696
sVwitness
p1672
I3053
sV'
p1673
I57
sVevacuation
p1674
I4897
sVbritons
p1675
I5976
sVreformist
p1676
I6337
sVu.s.-sponsored
p1677
I7270
sVtroop
p1678
I3918
sVshut
p1679
I2481
sVawait
p1680
I6359
sVwelches
p1681
I7933
sVregulators
p1682
I3802
sVsurely
p1683
I5058
sVregulatory
p1684
I3927
sVus-backed
p1685
I7967
sVtwo-pronged
p1686
I7845
sVmainland
p1687
I2348
sVspill
p1688
I4870
sVdubbed
p1689
I4465
sVcould
p1690
I94
sVdavid
p1691
I675
sVlength
p1692
I2432
sVhindering
p1693
I7077
sVremoving
p1694
I4790
sVdavis
p1695
I1836
sVhussein
p1696
I2150
sVtroublemakers
p1697
I7246
sVtaco
p1698
I6978
sVblown
p1699
I4886
sVscene
p1700
I1440
sVowned
p1701
I1145
sVracism
p1702
I5128
sVmuhammad
p1703
I4029
sVowner
p1704
I1691
sVthree-way
p1705
I7497
sVlegislative
p1706
I2125
sVsharon
p1707
I2351
sVdeceptive
p1708
I6908
sVstart
p1709
I463
sVordering
p1710
I5103
sVsystem
p1711
I276
sVsergeant
p1712
I5378
sVpainful
p1713
I4591
sVevacuated
p1714
I4151
sVinterests
p1715
I1746
sVenforcement
p1716
I2308
sVstomach
p1717
I5096
sVstars
p1718
I1505
sVlou
p1719
I5477
sVaryan
p1720
I7141
sVelite
p1721
I3457
sVcolleagues
p1722
I2907
sVwarfare
p1723
I4627
sVegregious
p1724
I7064
sVbother
p1725
I6096
sVtortured
p1726
I5394
sVappealing
p1727
I5157
sVmalpractice
p1728
I6911
sVbriefing
p1729
I4184
sVsteep
p1730
I4782
sVaccusing
p1731
I4109
sVfalse
p1732
I3069
sVtonight
p1733
I3629
sVdefending
p1734
I2493
sVclearly
p1735
I1934
sVviewed
p1736
I3498
sVdocuments
p1737
I1724
sVoverthrew
p1738
I6864
sVkoreas
p1739
I6284
sVstudying
p1740
I3626
sVchief
p1741
I274
sVmechanism
p1742
I4050
sVdemolished
p1743
I5123
sVashore
p1744
I6455
sVlinda
p1745
I4841
sVkorean
p1746
I1060
sVairdrop
p1747
I7699
sVsoap
p1748
I5047
sVtoughest
p1749
I5832
sVworldwide
p1750
I1866
sVjean-marc
p1751
I7736
sVbombed-out
p1752
I7951
sVminorites
p1753
I7965
sVplus
p1754
I2101
sVsegment
p1755
I4551
sVchien
p1756
I6857
sVso-called
p1757
I5882
sV800,000
p1758
I5993
sVstronger
p1759
I2693
sVthanksgiving
p1760
I5390
sVface
p1761
I614
sVmechanical
p1762
I4649
sVwounded
p1763
I1346
sVpainting
p1764
I3196
sVfact
p1765
I837
sVatmosphere
p1766
I3317
sVdisbanded
p1767
I5714
sVbring
p1768
I916
sVlloyd
p1769
I4588
sVrouge
p1770
I4812
sVrough
p1771
I3970
sVasylum
p1772
I4026
sVdecade
p1773
I1579
sVprincipal
p1774
I2672
sVpause
p1775
I6196
sVjay
p1776
I3863
sVsamarra
p1777
I6862
sVshould
p1778
I189
sVterminal
p1779
I3820
sVbombings
p1780
I2656
sVtape
p1781
I3476
sV58-year-old
p1782
I7974
sVriding
p1783
I3633
sVjab
p1784
I7066
sVsecretaries
p1785
I6559
sVhope
p1786
I808
sVmeant
p1787
I1977
sVhandle
p1788
I3006
sVlistened
p1789
I5841
sVbonds
p1790
I1846
sVfamiliar
p1791
I3040
sVlucky
p1792
I4018
sVprohibition
p1793
I6268
sVlistener
p1794
I6840
sVwouter
p1795
I7601
sVdefenseless
p1796
I7262
sVabby
p1797
I6983
sVcommittees
p1798
I4297
sVembedded
p1799
I6252
sVdenmark
p1800
I2973
sVtaxes
p1801
I1998
sVextremists
p1802
I4175
sVstuff
p1803
I3051
sVstreamlined
p1804
I6905
sVgbp
p1805
I7772
sVohio
p1806
I1880
sVtemporarily
p1807
I4009
sVedition
p1808
I2301
sV10-year-old
p1809
I7743
sVpacked
p1810
I3298
sVwire
p1811
I3892
sVjurassic
p1812
I6849
sVnuclear
p1813
I488
sVpartisan
p1814
I4839
sVpistol
p1815
I5756
sVemail
p1816
I6396
sVshiite
p1817
I2378
sVends
p1818
I2262
sVmiroslav
p1819
I6828
sVonetime
p1820
I6867
sVprobed
p1821
I7106
sVhistorians
p1822
I4887
sVlawsuit
p1823
I2724
sVmarty
p1824
I6202
sVfigured
p1825
I5335
sVkofi
p1826
I4756
sVinvited
p1827
I2593
sVdrug
p1828
I768
sVetc
p1829
I7245
sVfigures
p1830
I1181
sVfayyad
p1831
I7017
sVadjusted
p1832
I4724
sVconclude
p1833
I5158
sVauthorised
p1834
I6734
sVca
p1835
I839
sVmohamad
p1836
I6478
sVimclone
p1837
I7137
sVlabor
p1838
I1037
sVtikrit
p1839
I6687
sVdoor-to-door
p1840
I7706
sVpoured
p1841
I5318
sVcompensating
p1842
I7193
sVwaste
p1843
I3142
sVlouisiana
p1844
I3280
sVhomosexual
p1845
I6168
sVc.
p1846
I1856
sVcommuter
p1847
I5991
sVrioting
p1848
I6213
sVmuslims
p1849
I2290
sVatlanta
p1850
I1066
sVexpounded
p1851
I7527
sVspain
p1852
I1002
sVlaser
p1853
I5285
sVsotheby
p1854
I6688
sVrunway
p1855
I4687
sVexpiration
p1856
I6780
sVbathtub
p1857
I7098
sVva
p1858
I6430
sVkurdistan
p1859
I5823
sVdelaying
p1860
I6201
sVsite
p1861
I572
sVpitt
p1862
I6120
sVoptimistic
p1863
I3776
sVsits
p1864
I4508
sVterrorist
p1865
I1331
sVconcealing
p1866
I7011
sVpaulo
p1867
I4451
sVharmed
p1868
I6528
sVdigging
p1869
I6080
sVoutbreak
p1870
I3286
sVterrorism
p1871
I1253
sVpaula
p1872
I6041
sVball
p1873
I1052
sVcolumbia
p1874
I2282
sVbali
p1875
I4926
sVdusk
p1876
I6761
sVdrink
p1877
I3761
sVupon
p1878
I1185
sVv.
p1879
I3673
sVdust
p1880
I4594
sVafghan
p1881
I1661
sVidentity
p1882
I2701
sVoff
p1883
I138
sVindonesia
p1884
I1388
sVmukhabarat
p1885
I7759
sVsoutheastern
p1886
I3952
sVidiot
p1887
I6931
sVpham
p1888
I7291
sVcommand
p1889
I1555
sV350
p1890
I4372
sVaudio
p1891
I4040
sVnewest
p1892
I5591
sVnegligence
p1893
I6495
sVless
p1894
I438
sVmoments
p1895
I3415
sVkramer
p1896
I6568
sVrooms
p1897
I2925
sVhauled
p1898
I6626
sVpaul
p1899
I902
sVkostelka
p1900
I7953
sVweb
p1901
I1137
sVgenerous
p1902
I5191
sVresidential
p1903
I3531
sVsickened
p1904
I6858
sVarrest
p1905
I1542
sVcrack
p1906
I4078
sVvillagers
p1907
I4206
sVincreased
p1908
I1014
sVgovernment
p1909
I78
sVchecking
p1910
I5048
sVchancellor
p1911
I3284
sVhaul
p1912
I5344
sVfive
p1913
I174
sVpiet
p1914
I7445
sVbecome
p1915
I397
sVreplacement
p1916
I3350
sVindications
p1917
I5677
sVnajaf
p1918
I6075
sVfootage
p1919
I4280
sVchoosing
p1920
I4987
sVloaded
p1921
I4281
sVineligible
p1922
I6733
sVrecognition
p1923
I2897
sVliterally
p1924
I4458
sVavoid
p1925
I1502
sVdetainees
p1926
I3830
sVdemonstrators
p1927
I3680
sVdoes
p1928
I259
sVjordanians
p1929
I7001
sVblowing
p1930
I5723
sVschedule
p1931
I2437
sVpressure
p1932
I810
sVaccompanied
p1933
I3124
sVinfiltrating
p1934
I7188
sVloans
p1935
I1912
sVvs.
p1936
I2086
sVhiding
p1937
I4081
sVsister
p1938
I1889
sVlifestyle
p1939
I4509
sVputs
p1940
I3639
sVangeles
p1941
I909
sVinsufficient
p1942
I5595
sVconcession
p1943
I5955
sVpeak
p1944
I2780
sValliance
p1945
I1487
sVletters
p1946
I2450
sVtanzim
p1947
I7641
sVcatherine
p1948
I4914
sVcommitment
p1949
I2309
sVreferendum
p1950
I2813
sVlung
p1951
I4985
sVroads
p1952
I2342
sVcharities
p1953
I5700
sVreactivate
p1954
I7305
sVspots
p1955
I3847
sVkooky
p1956
I7638
sVfrustration
p1957
I4692
sVyrs
p1958
I7721
sVskoll
p1959
I7848
sVfiscal
p1960
I2248
sVfunnel
p1961
I6918
sVbashur
p1962
I7919
sVxinhua
p1963
I2052
sVdelivery
p1964
I2520
sVconstruction
p1965
I895
sVcount
p1966
I2253
sVbaptist
p1967
I4737
sVpackard
p1968
I6024
sVevident
p1969
I5010
sVofficial
p1970
I238
sVplaced
p1971
I1384
sVsunnis
p1972
I6143
sVnominations
p1973
I4884
sV278th
p1974
I7918
sVnurses
p1975
I5145
sVrecognize
p1976
I3256
sVcontribute
p1977
I3535
sVrubble
p1978
I5228
sVslowing
p1979
I4728
sVfather-in-law
p1980
I7178
sVink
p1981
I5861
sVing
p1982
I6263
sVagaint
p1983
I7803
sVplanting
p1984
I5672
sVrenowned
p1985
I4803
sVcompared
p1986
I1094
sVmci
p1987
I6188
sVnonetheless
p1988
I4485
sVdeadly
p1989
I2792
sVsharif
p1990
I5122
sVarianna
p1991
I7529
sVdetails
p1992
I1092
sVreckless
p1993
I6362
sVfrancisco
p1994
I1457
sVmonday
p1995
I183
sVdismantle
p1996
I6235
sVoutlets
p1997
I4938
sVchance
p1998
I993
sVchui
p1999
I7547
sVdolphins
p2000
I5362
sVlasted
p2001
I3744
sVrule
p2002
I1036
sVstatus
p2003
I1368
sVpension
p2004
I3634
sVsearched
p2005
I5006
sVrural
p2006
I1687
sVrep
p2007
I7039
sVdoubts
p2008
I4277
sVcontroversial
p2009
I2535
sVmansion
p2010
I4904
sVoldest
p2011
I3016
sVsaved
p2012
I3413
sVvotes
p2013
I1469
sVpunjab
p2014
I5669
sVshi'ites
p2015
I7753
sV33-month
p2016
I7781
sVvoted
p2017
I1892
sVtyrannies
p2018
I7854
sVworth
p2019
I1058
sVhanoun
p2020
I7134
sVsellers
p2021
I5316
sVtickets
p2022
I3149
sVunrest
p2023
I3765
sVcasinos
p2024
I5985
sVdelegate
p2025
I5343
sVupholds
p2026
I7084
sVundercover
p2027
I6034
sVjassem
p2028
I7235
sV1,600
p2029
I6161
sVblasphemy
p2030
I7113
sVphones
p2031
I3859
sV7th
p2032
I4717
sVjessica
p2033
I5748
sVestablished
p2034
I960
sVcooperating
p2035
I5676
sVincompatible
p2036
I6846
sVlondon-based
p2037
I7433
sVabove
p2038
I1038
sVtoll
p2039
I2302
sVneat
p2040
I6584
sVofficially
p2041
I2220
sVtold
p2042
I154
sVf-18s
p2043
I7828
sVwrapping
p2044
I6606
sVconglomerate
p2045
I5960
sVprotection
p2046
I1408
sVobtained
p2047
I2807
sVdaughter
p2048
I1098
sVitems
p2049
I1816
sVemployees
p2050
I1207
sVenvoy
p2051
I2849
sVloomed
p2052
I7038
sVanchor
p2053
I4978
sVsmoke
p2054
I3338
sVstressed
p2055
I2657
sVbunker
p2056
I5969
sVpostponed
p2057
I4187
sVsecure
p2058
I2445
sVhighly
p2059
I1699
sVthrust
p2060
I5903
sVtotal
p2061
I475
sVplot
p2062
I2070
sVpalestinian
p2063
I461
sVsodomising
p2064
I7957
sVindiana
p2065
I3151
sVseparated
p2066
I3885
sVtoppling
p2067
I6875
sVaward
p2068
I1030
sVaware
p2069
I2838
sVrecep
p2070
I6721
sVblocking
p2071
I4658
sVharnessing
p2072
I7414
sV1991
p2073
I1274
sV1990
p2074
I1401
sV1993
p2075
I1216
sV1992
p2076
I1223
sV1995
p2077
I986
sV1994
p2078
I956
sV1997
p2079
I972
sV1996
p2080
I897
sV1999
p2081
I923
sV1998
p2082
I866
sVwork
p2083
I161
sVrefusing
p2084
I4392
sVera
p2085
I1527
sVjamal
p2086
I6231
sVunshackled
p2087
I7820
sVsalesman
p2088
I6328
sVindicated
p2089
I2420
sVcited
p2090
I2501
sVindia
p2091
I472
sVfax
p2092
I3331
sVindicates
p2093
I4300
sVrecovery
p2094
I1894
sVskyler
p2095
I7609
sVcarriers
p2096
I3903
sVprovide
p2097
I751
sVverify
p2098
I5918
sVinterview
p2099
I938
sVordinary
p2100
I3397
sVbeach
p2101
I1438
sVgamble
p2102
I5749
sVpizza
p2103
I5732
sVtransforming
p2104
I6496
sVafter
p2105
I49
sVmemorial
p2106
I2324
sVmillimeter
p2107
I7345
sVstalinist
p2108
I6786
sVlax
p2109
I6533
sVlay
p2110
I2619
sVsuing
p2111
I6481
sVstrategists
p2112
I6617
sVlaw
p2113
I263
sVlap
p2114
I4215
sVhasty
p2115
I6900
sVappreciate
p2116
I5064
sVgreet
p2117
I6566
sVgreek
p2118
I1552
sVgreen
p2119
I965
sVwaitress
p2120
I6850
sVambulance
p2121
I5693
sVworst
p2122
I1541
sVorder
p2123
I458
sVnonhostile
p2124
I7952
sVoffice
p2125
I281
sVdefenders
p2126
I4720
sVsatisfied
p2127
I4218
sVjapan
p2128
I359
sVnets
p2129
I4907
sVmayor
p2130
I1287
sVbombing
p2131
I1679
sV60-year-old
p2132
I7913
sViaea
p2133
I4322
sVsomewhere
p2134
I4256
sVchristie
p2135
I5301
sVdenver
p2136
I2993
sVproduction
p2137
I611
sVcitigroup
p2138
I5443
sVrussian-built
p2139
I7960
sVsplit
p2140
I2128
sVthen
p2141
I127
sVthem
p2142
I101
sVaffected
p2143
I1959
sVmahmud
p2144
I5964
sVbans
p2145
I5488
sVsafe
p2146
I1782
sVbreak
p2147
I1096
sVthey
p2148
I39
sVbank
p2149
I230
sVoxygen
p2150
I4821
sVshepperd
p2151
I7879
sVclassified
p2152
I3939
sVrocks
p2153
I4098
sVreasonable
p2154
I4130
sVflyers
p2155
I6092
sVlifted
p2156
I3254
sVkhomeini
p2157
I6874
sVcrimes
p2158
I1586
sVhosted
p2159
I3059
sVlogo
p2160
I4990
sVflock
p2161
I6487
sVslew
p2162
I6639
sVnetwork
p2163
I833
sVdiesel
p2164
I4667
sVforty
p2165
I5351
sVvessels
p2166
I3813
sVal-douri
p2167
I7995
sVmedicine
p2168
I2183
sVforth
p2169
I4512
sVdisagreements
p2170
I6242
sVveto
p2171
I4058
sVstandard
p2172
I1190
sVcampaigns
p2173
I3380
sVappointments
p2174
I5770
sVdisputes
p2175
I3862
sVpro-democracy
p2176
I7665
sVforcibly
p2177
I6619
sVrenea
p2178
I7939
sVcreated
p2179
I931
sVrefugee
p2180
I3264
sVoppose
p2181
I3881
sVmanslaughter
p2182
I6492
sVorganize
p2183
I4877
sVbloomberg
p2184
I4284
sVperkins
p2185
I6273
sVteen-age
p2186
I7916
sVanother
p2187
I170
sVdrones
p2188
I6913
sVrats
p2189
I6278
sVcomic
p2190
I3548
sVelectronic
p2191
I2311
sVtimothy
p2192
I5224
sVwork-related
p2193
I7804
sVapproximately
p2194
I1996
sVrates
p2195
I848
sVjohn
p2196
I277
sVdogs
p2197
I3301
sVhappily
p2198
I6419
sVradars
p2199
I7085
sVrejected
p2200
I1646
sVwasted
p2201
I6127
sVtoronto
p2202
I2330
sVmercy
p2203
I5747
sVtarget
p2204
I1430
sVchiluba
p2205
I6834
sVnegotiator
p2206
I4704
sVebay
p2207
I6115
sVsabato
p2208
I7377
sVhistorical
p2209
I2090
sVapparantly
p2210
I7941
sVpowers
p2211
I2023
sVmanned
p2212
I6136
sV210,000
p2213
I7260
sVreturn
p2214
I496
sVmanner
p2215
I3366
sVvigorous
p2216
I6227
sVforced
p2217
I987
sVa/k/a
p2218
I7902
sVstrength
p2219
I2034
sVgenuine
p2220
I5018
sVladen
p2221
I2632
sVself-defense
p2222
I7209
sVluxury
p2223
I3636
sVforces
p2224
I338
sVrasheed
p2225
I6963
sVacquire
p2226
I4260
sV400,000
p2227
I5186
sVbruce
p2228
I3356
sVwhat
p2229
I102
sVinvolving
p2230
I2205
sVgermany
p2231
I507
sVphase
p2232
I2662
sVautopsy
p2233
I6383
sVgrave
p2234
I3703
sVhanna
p2235
I6755
sVaunt
p2236
I5806
sVsun
p2237
I1589
sVvoting
p2238
I2007
sVresponded
p2239
I2847
sVreserve
p2240
I1548
sVasia-pacific
p2241
I7470
sVanniversary
p2242
I2182
sVnephew
p2243
I5276
sVisreali
p2244
I7907
sVenjoyed
p2245
I3367
sVconsciousness
p2246
I5510
sVimplementation
p2247
I3369
sVyen
p2248
I951
sVpursuing
p2249
I4547
sVpersonality
p2250
I3944
sVdn
p2251
I7646
sVdo
p2252
I88
sVdi
p2253
I3896
sVde
p2254
I340
sVdb
p2255
I6777
sVdc
p2256
I5292
sVpreferred
p2257
I3959
sVda
p2258
I3771
sVverses
p2259
I6444
sVruns
p2260
I952
sVcovering
p2261
I3230
sVexchanged
p2262
I5142
sVinsurgents
p2263
I2982
sVsquadron
p2264
I3668
sVsteam
p2265
I4270
sVsecretary
p2266
I495
sVmiserably
p2267
I7292
sVon-field
p2268
I7687
sVw.
p2269
I1378
sVrocket-propelled
p2270
I7809
sVobserved
p2271
I3748
sVdiscussions
p2272
I2729
sVferocious
p2273
I6800
sVtechniques
p2274
I3560
sVaway
p2275
I418
sVsweden
p2276
I1919
sVunable
p2277
I2122
sVtainted
p2278
I5751
sVcooperation
p2279
I945
sVdrawn
p2280
I2369
sVencounters
p2281
I5887
sVco.
p2282
I1135
sVwe
p2283
I53
sVterms
p2284
I1048
sVdisband
p2285
I6953
sVwo
p2286
I1325
sVhandful
p2287
I3908
sVgays
p2288
I6207
sVflashes
p2289
I6726
sVpackages
p2290
I4878
sVoverestimated
p2291
I7482
sVkitchen
p2292
I3926
sVreceived
p2293
I494
sVessentially
p2294
I3794
sVcot
p2295
I7432
sVmuhammed
p2296
I7102
sVill
p2297
I2782
sVparalyzing
p2298
I7224
sVreceives
p2299
I4559
sVrequests
p2300
I3955
sVcom
p2301
I5921
sVpeacefully
p2302
I5437
sVtough
p2303
I1529
sVislamists
p2304
I6236
sVroyal
p2305
I1109
sVtons
p2306
I2286
sVmassive
p2307
I1862
sVtony
p2308
I1938
sVfrenetic
p2309
I7108
sVtelecommunications
p2310
I3238
sVspeak
p2311
I2054
sVgratitude
p2312
I6512
sViraq
p2313
I232
sVcondemned
p2314
I3198
sVaxis
p2315
I5603
sVcosgrove
p2316
I7466
sVdozens
p2317
I2061
sVduties
p2318
I3293
sVfamilies
p2319
I894
sVeasy
p2320
I1598
sVattacked
p2321
I2009
sVpsychically
p2322
I7808
sVattacker
p2323
I6199
sVapplied
p2324
I2626
sVphysician
p2325
I4545
sVeast
p2326
I320
sVahead
p2327
I698
sVpublicly
p2328
I2682
sVair
p2329
I323
sVaim
p2330
I3061
sVentertains
p2331
I7544
sVaid
p2332
I826
sVaig
p2333
I6081
sVvoice
p2334
I1635
sVlaunched
p2335
I1136
sVmistake
p2336
I3312
sVsticker
p2337
I6833
sVdumped
p2338
I5527
sVexile
p2339
I3751
sVwarthog
p2340
I7761
sVconfirmed
p2341
I1273
sVperform
p2342
I2793
sVdemonstration
p2343
I3904
sVtrashing
p2344
I7528
sVindictment
p2345
I4237
sVconvictions
p2346
I5744
sVhank
p2347
I6219
sVindependent
p2348
I899
sVhanh
p2349
I7647
sVraid
p2350
I2935
sVsaddam
p2351
I1567
sVdisagreement
p2352
I5957
sVhang
p2353
I3330
sVevil
p2354
I3617
sVhand
p2355
I807
sVhans
p2356
I4699
sVpalpable
p2357
I7020
sVblamed
p2358
I2188
sVvermont
p2359
I4852
sVkept
p2360
I1252
sV1979
p2361
I2391
sV1970
p2362
I2842
sVhispanic
p2363
I3579
sVcontact
p2364
I1777
sVgoals
p2365
I1170
sVthe
p2366
I1
sVcamps
p2367
I2764
sVepa
p2368
I5307
sVquoted
p2369
I1200
sVjabaliya
p2370
I7369
sVrpgs
p2371
I7522
sVphoto
p2372
I2783
sVedmonton
p2373
I5573
sVmid
p2374
I2074
sVthanks
p2375
I2787
sVvictim
p2376
I2785
sVmohamed
p2377
I4046
sVadding
p2378
I997
sVhills
p2379
I2742
sVphotographer
p2380
I4637
sVpre-dawn
p2381
I7861
sVspread
p2382
I1564
sVboard
p2383
I532
sVfares
p2384
I5746
sVexpelled
p2385
I4678
sVcoalescing
p2386
I7726
sVphotographed
p2387
I6367
sVcaps
p2388
I4846
sVarab
p2389
I1062
sVfusion
p2390
I5980
sVinjuring
p2391
I4722
sVcape
p2392
I3217
sVcapa
p2393
I7597
sVretreat
p2394
I4482
sVinsurgent
p2395
I5305
sVsecurities
p2396
I1583
sVnight
p2397
I362
sVinvaluable
p2398
I6903
sVsecurity
p2399
I194
sVwebb
p2400
I5387
sVportuguese
p2401
I3100
sVhonored
p2402
I4622
sVlashes
p2403
I7035
sVsends
p2404
I4799
sVchamchamal
p2405
I7842
sVborn
p2406
I377
sVbemused
p2407
I7375
sVbore
p2408
I5409
sVmazen
p2409
I6955
sVcomments
p2410
I1840
sVasking
p2411
I2405
sVdenied
p2412
I1361
sVbeating
p2413
I2577
sVparticipation
p2414
I3087
sVcash-strapped
p2415
I7888
sVpose
p2416
I4785
sVconstructive
p2417
I5540
sVrestructuring
p2418
I3916
sVplo
p2419
I5015
sVpost
p2420
I649
sVal-jazeera
p2421
I7816
sVmonths
p2422
I264
sVhostilities
p2423
I5797
sVbanker
p2424
I5482
sVslusser
p2425
I7925
sVjacques
p2426
I3491
sVpays
p2427
I4738
sVprisoners
p2428
I1995
sVbound
p2429
I3227
sVback-to-back
p2430
I7173
sVtheorists
p2431
I7016
sVole
p2432
I6539
sV21.5
p2433
I7074
sVlegislation
p2434
I1641
sVsovereign
p2435
I4915
sVfight
p2436
I822
sVconservation
p2437
I3545
sVway
p2438
I179
sVaccords
p2439
I5129
sVinnovators
p2440
I7354
sVwas
p2441
I15
sVwar
p2442
I136
sVweldon
p2443
I7061
sVbecoming
p2444
I1590
sVpeninsula
p2445
I3102
sVmysterious
p2446
I5034
sVelderly
p2447
I3714
sVtrue
p2448
I1394
sVabsent
p2449
I5225
sVresponding
p2450
I4617
sVmaximum
p2451
I2671
sVback-up
p2452
I7340
sVemotional
p2453
I3326
sVtearing
p2454
I6664
sVpromises
p2455
I3437
sVfrederick
p2456
I4422
sVreligiously
p2457
I7046
sVevidence
p2458
I886
sVpromised
p2459
I1921
sVrees
p2460
I6831
sVincursion
p2461
I6456
sVphysical
p2462
I2041
sVdying
p2463
I4115
sVstake
p2464
I2217
sVreality
p2465
I2336
sVnegotiators
p2466
I4445
sVshrine
p2467
I4536
sVrwandan
p2468
I4842
sVtest
p2469
I718
sVbrothers
p2470
I1850
sVwelcome
p2471
I2800
sVupdate
p2472
I3910
sVtogether
p2473
I594
sVloyal
p2474
I4054
sVreception
p2475
I3186
sVn.j.
p2476
I5240
sVstick
p2477
I3641
sVtigris
p2478
I6943
sVconcept
p2479
I2687
sVdiplomacy
p2480
I4593
sVdance
p2481
I2104
sVglobal
p2482
I692
sVarnett
p2483
I7444
sVgrateful
p2484
I5604
sVbattle
p2485
I883
sVkommersant
p2486
I7162
sVdevoted
p2487
I3924
sVcertainly
p2488
I1914
sVkillings
p2489
I3291
sVzone
p2490
I1439
sVhonoring
p2491
I6436
sVzeroing
p2492
I7629
sVcompensate
p2493
I5725
sVterror
p2494
I1864
sVsouthwest
p2495
I2499
sVdivision
p2496
I713
sVcharles
p2497
I1263
sVseemingly
p2498
I4712
sVliability
p2499
I5311
sVtwo-time
p2500
I7079
sVanonymous
p2501
I4970
sVtrouble
p2502
I2050
sVblast
p2503
I2251
sVperceived
p2504
I4540
sVcunningham
p2505
I6076
sVdrive-by
p2506
I7764
sVpresented
p2507
I1826
sVturns
p2508
I2633
sVgun
p2509
I1903
sVgul
p2510
I5912
sVpollack
p2511
I7027
sVguy
p2512
I1763
sVupper
p2513
I2069
sVrevolution
p2514
I2329
sVregret
p2515
I4830
sVcosa
p2516
I7381
sVdiscover
p2517
I4640
sVsweeps
p2518
I6625
sVcost
p2519
I761
sVupped
p2520
I7096
sVpenetrated
p2521
I6945
sVsnipers
p2522
I6819
sVrapist
p2523
I7089
sV9-year-old
p2524
I7864
sVappear
p2525
I1577
sVassistance
p2526
I1895
sVshares
p2527
I542
sVuniform
p2528
I4015
sVshared
p2529
I2483
sVappeal
p2530
I1510
sVstelios
p2531
I7587
sVsatisfy
p2532
I5558
sVsupporting
p2533
I2338
sVexplosion
p2534
I2246
sVmuslim
p2535
I1139
sV2:30
p2536
I6855
sVchangi
p2537
I7311
sVapache
p2538
I6518
sVappears
p2539
I1585
sVchange
p2540
I509
sVsending
p2541
I2455
sVlakers
p2542
I3630
sVtrial
p2543
I788
sVfranklin
p2544
I3992
sVusually
p2545
I1107
sVmontreal
p2546
I3399
sVchurchill
p2547
I5879
sVretired
p2548
I1587
sVextra
p2549
I1890
sVcommittal
p2550
I7596
sVmarked
p2551
I2211
sVmemorable
p2552
I5556
sVfbi
p2553
I2244
sVrarely
p2554
I3400
sVmarket
p2555
I211
sVprove
p2556
I2567
sVbury
p2557
I6045
sVresigns
p2558
I6598
sVayatollah
p2559
I6069
sVterritories
p2560
I3374
sVlive
p2561
I673
sVcarty
p2562
I7513
sVentrance
p2563
I3537
sVmissionaries
p2564
I6123
sVclub
p2565
I447
sVenvelope
p2566
I6464
sVcommissioned
p2567
I3865
sV8,000
p2568
I4844
sVorganizations
p2569
I1623
sVslogan
p2570
I5763
sVcar
p2571
I565
sVcap
p2572
I3078
sVpurge
p2573
I6778
sVhardest
p2574
I5266
sVincidents
p2575
I3382
sVcan
p2576
I86
sVcam
p2577
I6658
sVkeynes
p2578
I7083
sVheart
p2579
I1029
sVdecember
p2580
I468
sV1980s
p2581
I2014
sVheard
p2582
I1383
sVfortunes
p2583
I5665
sVchin
p2584
I5951
sVspa
p2585
I5013
sVclothing
p2586
I3526
sVrestitution
p2587
I6768
sVproductive
p2588
I5290
sVbankrupt
p2589
I5738
sVdiscussion
p2590
I2906
sVmeans
p2591
I870
sVwrite
p2592
I2255
sVdominance
p2593
I5561
sVeconomy
p2594
I425
sVarmies
p2595
I5314
sVproduct
p2596
I1404
sV13-year
p2597
I6170
sVsacrifice
p2598
I4783
sVaol
p2599
I5147
sVsouthern
p2600
I480
sVproduce
p2601
I1633
sVcommit
p2602
I4123
sV5.4
p2603
I6157
sVheroes
p2604
I4570
sVnomination
p2605
I2822
sVlifting
p2606
I4274
sVremember
p2607
I2480
sVgrandson
p2608
I5180
sVaccelerated
p2609
I5750
sVopts
p2610
I7387
sVtypical
p2611
I3177
sVembassies
p2612
I5523
sVserving
p2613
I1626
sVindeed
p2614
I2509
sVpasko
p2615
I7570
sVbrain
p2616
I2663
sVaffirms
p2617
I7250
sVcold
p2618
I1772
sVcole
p2619
I4520
sVlied
p2620
I6171
sVinflicted
p2621
I6232
sVforms
p2622
I2239
sVbroadcasts
p2623
I4924
sVisraeli-palestinian
p2624
I7730
sVcorrespondence
p2625
I6303
sVhalt
p2626
I3101
sVfling
p2627
I7230
sVnod
p2628
I6424
sVcol.
p2629
I4253
sVadrenaline
p2630
I7006
sVhalf
p2631
I341
sVnot
p2632
I36
sVnow
p2633
I114
sVprovision
p2634
I4014
sV1958
p2635
I3691
sVnor
p2636
I1967
sVservant
p2637
I5848
sVjames
p2638
I853
sVdrop
p2639
I1496
sVsocial-democratic
p2640
I7693
sVstockholm
p2641
I4726
sVh
p2642
I4459
sVentirely
p2643
I3026
sVen
p2644
I2769
sVfired
p2645
I1387
sVcairo
p2646
I3492
sVdirecting
p2647
I5295
sVyeah
p2648
I5539
sVeb
p2649
I7167
sVchallenges
p2650
I2697
sVfires
p2651
I3738
sVex
p2652
I2399
sVyear
p2653
I62
sVeu
p2654
I637
sVnaming
p2655
I5085
sVavoided
p2656
I4624
sVer
p2657
I6429
sVshown
p2658
I1643
sVopened
p2659
I757
sVspace
p2660
I847
sVantiwar
p2661
I7133
sVfurthermore
p2662
I5167
sVlawyers
p2663
I1639
sVincrease
p2664
I677
sVrational
p2665
I6138
sVreceiving
p2666
I2508
sVshows
p2667
I946
sVkan.
p2668
I6674
sVrebuilding
p2669
I4797
sVdefenses
p2670
I5684
sVcars
p2671
I1240
sVcart
p2672
I5802
sVbarak
p2673
I4478
sVrebel
p2674
I1501
sVmarino
p2675
I6316
sVmarina
p2676
I6051
sVobligation
p2677
I5187
sVmarine
p2678
I2109
sVinevitable
p2679
I4960
sVcard
p2680
I1810
sVcare
p2681
I747
sVtomahawk
p2682
I7208
sVroadblocks
p2683
I6579
sVbritish
p2684
I295
sVhonest
p2685
I4537
sVlindsey
p2686
I6394
sVpalaces
p2687
I6670
sV511
p2688
I7421
sVblind
p2689
I4321
sVzao
p2690
I7795
sVromania
p2691
I2911
sVflying
p2692
I2173
sVstriking
p2693
I3712
sVmunicipality
p2694
I2287
sVagartala
p2695
I7769
sVdirectly
p2696
I1732
sVimpossible
p2697
I2823
sVmessage
p2698
I1391
sVdrove
p2699
I2832
sVtomorrow
p2700
I3385
sVsize
p2701
I1238
sVsheer
p2702
I5764
sVcaught
p2703
I1824
sVbreed
p2704
I5446
sVtragic
p2705
I5090
sVcarousel
p2706
I7095
sVfriend
p2707
I1362
sVmostly
p2708
I1211
sVthat
p2709
I12
sVpittsburgh
p2710
I3099
sVjane
p2711
I3931
sV'70s
p2712
I6133
sVthae
p2713
I7857
sVtehran
p2714
I2673
sVeliminated
p2715
I3705
sVflowers
p2716
I3628
sVthan
p2717
I73
sVprofessionals
p2718
I4226
sVtelevision
p2719
I456
sVfactions
p2720
I4036
sVrecruit
p2721
I5441
sVbrowser
p2722
I6056
sVinvestors
p2723
I745
sVremained
p2724
I1016
sVpremier
p2725
I1291
sVanger
p2726
I3343
sVbreakfast
p2727
I4492
sVrecover
p2728
I3577
sVwindsor
p2729
I6079
sVoffering
p2730
I1982
sVveteran
p2731
I2381
sVterrific
p2732
I6145
sVequipment
p2733
I1358
sVmr.
p2734
I1882
sVbtk
p2735
I7729
sVonline
p2736
I1254
sVobjective
p2737
I4111
sVbegin
p2738
I1061
sVprice
p2739
I619
sVimportantly
p2740
I6241
sVamerica
p2741
I451
sV]
p2742
I4132
sVmichelle
p2743
I4963
sVbishops
p2744
I4475
sVreform
p2745
I1258
sVsteady
p2746
I3251
sVprofessional
p2747
I1129
sVabraham
p2748
I5040
sVtypically
p2749
I2457
sVfiling
p2750
I4221
sVgerman
p2751
I512
sVfifty
p2752
I5215
sVdiscovered
p2753
I1776
sVmaine
p2754
I3997
sVfifth
p2755
I1205
sVground
p2756
I802
sVtitle
p2757
I689
sVassailants
p2758
I6198
sVanalyst
p2759
I1431
sVonly
p2760
I91
sVessence
p2761
I5730
sVthompson
p2762
I3212
sV220
p2763
I5699
sVinterstate
p2764
I4626
sVcannon
p2765
I5571
sVsamuel
p2766
I3894
sVtruly
p2767
I3817
sVbaghdad
p2768
I1201
sVcelebrate
p2769
I3808
sVdeprecate
p2770
I7949
sVsorrowfully
p2771
I7894
sVhusband
p2772
I1288
sVconcert
p2773
I2720
sVphysically
p2774
I4686
sVelected
p2775
I994
sVnamely
p2776
I5099
sVactively
p2777
I4326
sVuva
p2778
I7516
sVeuropeans
p2779
I4467
sVisraeli
p2780
I404
sV3
p2781
I312
sVbetween
p2782
I118
sVjustified
p2783
I5379
sVdeveloper
p2784
I4980
sVbroadcast.com
p2785
I7791
sVnotice
p2786
I3378
sVstateside
p2787
I7449
sVblame
p2788
I3146
sVarticle
p2789
I1677
sVjavier
p2790
I5065
sVinstallation
p2791
I5068
sVnile
p2792
I6139
sVsoekarnoputri
p2793
I7552
sVcomes
p2794
I912
sVnearby
p2795
I1424
sVerbil
p2796
I7616
sVexploit
p2797
I5970
sVlearning
p2798
I2503
sVperpetrators
p2799
I6305
sVcharismatic
p2800
I6403
sVcares
p2801
I6428
sVrebuild
p2802
I4505
sVinformed
p2803
I3287
sVextramarital
p2804
I7161
sVdictator
p2805
I4723
sVdangers
p2806
I5287
sVsystems
p2807
I1115
sVelvis
p2808
I5452
sVwounds
p2809
I4340
sVone-third
p2810
I7101
sVobservers
p2811
I2988
sVsuspected
p2812
I1536
sVdeveloping
p2813
I1521
sVthese
p2814
I158
sVeditorial
p2815
I3219
sVchallengers
p2816
I6526
sVmining
p2817
I2859
sVsoil
p2818
I3303
sVcommander
p2819
I1473
sVcanceled
p2820
I3816
sVsudanese
p2821
I4020
sVbias
p2822
I5528
sVembrace
p2823
I5088
sVkenya
p2824
I2448
sVworry
p2825
I3105
sVnorthward
p2826
I6756
sVdevelop
p2827
I1702
sVmedia
p2828
I491
sVmedic
p2829
I7088
sVfood
p2830
I561
sVfollowers
p2831
I4084
sVfinish
p2832
I1554
sVarctic
p2833
I5140
sVnonlethal
p2834
I7691
sVfruit
p2835
I3472
sVtradition
p2836
I2574
sVcomplained
p2837
I3035
sVtheater
p2838
I2093
sVcharges
p2839
I824
sVsevere
p2840
I2349
sVgrandfathers
p2841
I7508
sVcongressmen
p2842
I6696
sVcharged
p2843
I1226
sVtaxi
p2844
I4943
sVvaluable
p2845
I3783
sVnoaa
p2846
I7121
sVtouch
p2847
I2884
sVmalicious
p2848
I6821
sVspeed
p2849
I1451
sVdeath
p2850
I334
sVstaging
p2851
I5370
sVeuros
p2852
I1910
sVthinking
p2853
I2238
sVsmugglers
p2854
I6282
sVtreatment
p2855
I1315
sV1,403
p2856
I7885
sVrepublic
p2857
I857
sVstruck
p2858
I1775
sVreal
p2859
I563
sVrules
p2860
I1049
sVruler
p2861
I4992
sVpsd
p2862
I7510
sVearly
p2863
I199
sVlistening
p2864
I4564
sVusing
p2865
I615
sVexecution
p2866
I3648
sVlady
p2867
I2541
sVruled
p2868
I1649
sVmartyrs
p2869
I6169
sVfortune
p2870
I4073
sVheightened
p2871
I5323
sVdislodged
p2872
I7373
sVpounds
p2873
I1620
sVmiracle
p2874
I5339
sVbenefit
p2875
I2022
sVt
p2876
I2021
sVmolotov
p2877
I7068
sVoutput
p2878
I2514
sVendorsed
p2879
I4329
sVenvoys
p2880
I6187
sVprivatization
p2881
I5463
sVrecorded
p2882
I1330
sVhonorarium
p2883
I7775
sVconservative
p2884
I1405
sVdeficit
p2885
I1969
sVnon-profit
p2886
I6174
sVwillie
p2887
I5355
sVfractures
p2888
I6873
sVassembly
p2889
I1348
sVmullahs
p2890
I7460
sVbusiness
p2891
I257
sVsixth
p2892
I1811
sV1937
p2893
I4299
sV1936
p2894
I4178
sVinnocence
p2895
I5497
sVraul
p2896
I5427
sVsadder
p2897
I7628
sVthrow
p2898
I2966
sVcentral
p2899
I321
sVchoe
p2900
I7288
sVjourney
p2901
I3333
sVwolf
p2902
I4635
sVgreatly
p2903
I3937
sVunderway
p2904
I4817
sVintent
p2905
I4211
sVexported
p2906
I5614
sVcrichton
p2907
I7187
sVheavy
p2908
I1075
sVprotests
p2909
I1823
sVinvolvement
p2910
I2600
sVelementary
p2911
I3874
sVwatchdog
p2912
I4663
sVyour
p2913
I390
sVintervention
p2914
I3758
sVal-qaida
p2915
I7814
sVprepare
p2916
I2909
sVarea
p2917
I236
sVassumed
p2918
I3795
sVlol
p2919
I7679
sVliana
p2920
I7731
sVlos
p2921
I783
sVstealth
p2922
I6785
sVak-47
p2923
I6961
sVlow
p2924
I645
sVlot
p2925
I528
sVstarr
p2926
I5033
sVbillion
p2927
I160
sVsmuggling
p2928
I4303
sVgaza
p2929
I1133
sVdelayed
p2930
I2948
sVknow-how
p2931
I7714
sV450-kilogram
p2932
I7936
sVtwo-thirds
p2933
I6985
sVtrying
p2934
I590
sVhappening
p2935
I3888
sVhire
p2936
I4408
sVfraud
p2937
I2498
sVcirculation
p2938
I4698
sVstanford
p2939
I4222
sVdefault
p2940
I5320
sVbeliefs
p2941
I4973
sV600
p2942
I3098
sVarabs
p2943
I4150
sVdescribe
p2944
I3679
sVmoved
p2945
I550
sVsales
p2946
I524
sVsaleh
p2947
I6078
sVmoves
p2948
I2289
sVhospitals
p2949
I2761
sVcabinets
p2950
I6910
sVadministered
p2951
I5023
sVstorage
p2952
I3651
sVevenings
p2953
I6701
sVgambling
p2954
I4404
sVyou
p2955
I81
sVforcing
p2956
I3421
sVpoor
p2957
I968
sVpolar
p2958
I5930
sVauthoritarian
p2959
I6192
sVairplanes
p2960
I5968
sVmassachusetts
p2961
I2031
sVcoverage
p2962
I2160
sVdornan
p2963
I7411
sVbanners
p2964
I5792
sVpool
p2965
I2853
sVbuilding
p2966
I445
sVstockpile
p2967
I6724
sVrestored
p2968
I3608
sVoverseas
p2969
I1946
sVbolton
p2970
I4899
sVoutlining
p2971
I6643
sVsince
p2972
I108
sVpointing
p2973
I4376
sVmonth
p2974
I228
sVceased
p2975
I5346
sVdeadline
p2976
I2864
sVmessy
p2977
I6781
sVcustomary
p2978
I6118
sVreligious
p2979
I1179
sVreferring
p2980
I2359
sVfoster
p2981
I3561
sVclerics
p2982
I6113
sVkrispy
p2983
I7534
sVpledges
p2984
I5179
sVconfidential
p2985
I5602
sVdivisions
p2986
I3469
sVvery
p2987
I191
sVhorror
p2988
I4496
sVbombed
p2989
I5374
sVme
p2990
I283
sVdecide
p2991
I1972
sVheaven
p2992
I4881
sV--
p2993
I65
sVlouis
p2994
I1741
sVthree-stage
p2995
I7815
sVbulldozing
p2996
I7635
sVfourtou
p2997
I7619
sVcookies
p2998
I6272
sVstreets
p2999
I1654
sVgreenspan
p3000
I4774
sVpromoter
p3001
I6326
sVdarkness
p3002
I5333
sVwitnesses
p3003
I2250
sVapologized
p3004
I5666
sVlearned
p3005
I2115
sVmultinational
p3006
I5182
sVturmoil
p3007
I4116
sViran
p3008
I543
sVrecruits
p3009
I5727
sVma
p3010
I3520
sVloose
p3011
I4052
sVhumvees
p3012
I7175
sVanswers
p3013
I4147
sVtrunk
p3014
I5898
sVbasra
p3015
I5483
sVstrong
p3016
I558
sVarena
p3017
I3056
sVconviction
p3018
I3941
sVlosses
p3019
I1568
sVsoldier
p3020
I2291
sVamount
p3021
I1369
sVsealing
p3022
I6751
sVsuccessors
p3023
I6666
sVinvalidate
p3024
I7406
sVfamily
p3025
I213
sVmediator
p3026
I6023
sVrequiring
p3027
I4154
sVput
p3028
I337
sVaimed
p3029
I1565
sVtrained
p3030
I2776
sVtoys
p3031
I4744
sVgunmen
p3032
I3157
sVattendant
p3033
I6525
sVconventional
p3034
I3919
sVash
p3035
I5267
sVkhan
p3036
I2686
sVtakes
p3037
I1111
sVinjure
p3038
I7032
sVcontains
p3039
I2256
sVcurtailed
p3040
I6871
sVtaken
p3041
I490
sVinjury
p3042
I1490
sVauthorization
p3043
I6276
sVjr.
p3044
I2078
sVexcuse
p3045
I5350
sVbroke
p3046
I1354
sV7000
p3047
I7360
sVmounted
p3048
I3846
sVproducing
p3049
I2788
sVsovereignty
p3050
I3713
sVhelped
p3051
I939
sVsingle-file
p3052
I7976
sVoffender
p3053
I6713
sVoversight
p3054
I4834
sVcoalition
p3055
I1093
sVnine
p3056
I729
sVyemen
p3057
I4190
sVevian
p3058
I7192
sVhistory
p3059
I297
sValbo
p3060
I7802
sVencircle
p3061
I7486
sVboycott
p3062
I4121
sVpushed
p3063
I2423
sVlacks
p3064
I5330
sVarabic
p3065
I4229
sVfirmly
p3066
I4727
sVstayed
p3067
I2816
sVal-sheikh
p3068
I7942
sVtried
p3069
I953
sVidiocy
p3070
I7694
sVtries
p3071
I2936
sVinvasion
p3072
I2429
sVrudy
p3073
I6374
sVfl
p3074
I6940
sVa
p3075
I8
sVcontrived
p3076
I7172
sVcriticize
p3077
I6100
sVovernight
p3078
I2397
sVsodomy
p3079
I6941
sVbanks
p3080
I970
sVdream
p3081
I2617
sVremnants
p3082
I5908
sVhelp
p3083
I273
sVoil-for-food
p3084
I7891
sVsoon
p3085
I711
sVauburn
p3086
I6007
sVheld
p3087
I256
sVcommittee
p3088
I444
sVcommitted
p3089
I1714
sVhelm
p3090
I5988
sVhell
p3091
I4301
sVfined
p3092
I4874
sVsolving
p3093
I5728
sVactually
p3094
I1357
sVabsence
p3095
I3182
sVdisclosed
p3096
I4205
sVfines
p3097
I5032
sVpost-war
p3098
I6651
sVevening
p3099
I1656
sVmotivated
p3100
I4578
sVceo
p3101
I3181
sVmotivates
p3102
I7396
sVstarbucks
p3103
I6531
sVfoot
p3104
I2013
sVtraveled
p3105
I3447
sVshort-range
p3106
I7661
sVbryan
p3107
I4972
sVbaliles
p3108
I7895
sVimprisoned
p3109
I4826
sVfully
p3110
I1764
sVscumbag
p3111
I7837
sVintervene
p3112
I5251
sVsemiannual
p3113
I7514
sVcapability
p3114
I4865
sVrust-colored
p3115
I7988
sVstopped
p3116
I1730
sVapartheid
p3117
I5263
sVreferred
p3118
I2288
sVbarrels
p3119
I3107
sVgive-away
p3120
I7971
sVwacky
p3121
I7067
sVaccidentally
p3122
I5653
sVirreconcilable
p3123
I7400
sVtodd
p3124
I4005
sVinspections
p3125
I4481
sVbeyond
p3126
I1454
sVevent
p3127
I759
sVrobert
p3128
I873
sVsurrounded
p3129
I3362
sVtestify
p3130
I4708
sVdouglas
p3131
I3389
sVsafety
p3132
I1057
sV7
p3133
I625
sVissue
p3134
I493
sVhoused
p3135
I5022
sVfavored
p3136
I4217
sVsiphoning
p3137
I7336
sVpub
p3138
I6004
sVdarius
p3139
I6989
sVhouses
p3140
I1560
sVreason
p3141
I1212
sVbase
p3142
I800
sVask
p3143
I1634
sVmatthews
p3144
I6243
sVearliest
p3145
I4060
sVturnout
p3146
I4265
sVheroic
p3147
I6388
sVrevolutionary
p3148
I3231
sVzarqawi
p3149
I6124
sVlaunch
p3150
I1696
sVsheikh
p3151
I4085
sVcheering
p3152
I6091
sVamerican
p3153
I140
sVexpecting
p3154
I4149
sVexponentially
p3155
I7185
sVsyria
p3156
I1916
sVteterboro
p3157
I7710
sVfischer
p3158
I5291
sVprobability
p3159
I5949
sVpresumptions
p3160
I7774
sVreflected
p3161
I3945
sVhebron
p3162
I4778
sVelder
p3163
I4504
sVunexpected
p3164
I4499
sVarbitration
p3165
I5542
sVhorse
p3166
I2599
sVst.
p3167
I813
sVlejeune
p3168
I7212
sVairborne
p3169
I5471
sVdug
p3170
I5798
sVwonderful
p3171
I4087
sVexpand
p3172
I2538
sVhandshakes
p3173
I7424
sVnigeria
p3174
I2142
sVhundred
p3175
I2752
sVbechtel
p3176
I7234
sVgibraltar
p3177
I6402
sVwolfowitz
p3178
I6563
sVselling
p3179
I1453
sVpassed
p3180
I1218
sVtrapped
p3181
I3868
sVjamie
p3182
I5057
sVhomicide
p3183
I6028
sVjordan
p3184
I1668
sVnco
p3185
I7573
sVextradited
p3186
I6463
sValbums
p3187
I3131
sVraping
p3188
I6675
sVfinancing
p3189
I3281
sVgrew
p3190
I1658
sVstl
p3191
I7506
sVouster
p3192
I5799
sVbride
p3193
I5946
sVgreg
p3194
I3775
sVstore
p3195
I1544
sVtoward
p3196
I957
sVousted
p3197
I3708
sVsentenced
p3198
I2376
sVcharlotte
p3199
I4161
sVmacau
p3200
I5963
sValongside
p3201
I2746
sVairstrike
p3202
I6660
sVcomrades
p3203
I6504
sVsentences
p3204
I4092
sVconcentration
p3205
I4330
sVvulnerable
p3206
I3753
sVoption
p3207
I2647
sVlie
p3208
I3770
sVu.s
p3209
I6489
sVbasson
p3210
I7610
sVofficers
p3211
I1010
sVlit
p3212
I5356
sVliu
p3213
I3552
sVlabour
p3214
I2668
sVcaliphate
p3215
I7184
sVu.n
p3216
I7422
sVaired
p3217
I3649
sVtowards
p3218
I1720
sVquote
p3219
I5503
sVindochina
p3220
I7130
sVplunder
p3221
I7116
sVhired
p3222
I2738
sVeaten
p3223
I5983
sVkay
p3224
I5668
sVapproved
p3225
I1364
sVsalary
p3226
I3500
sVmobile
p3227
I2203
sVperformances
p3228
I2821
sVclear
p3229
I697
sVpopularity
p3230
I3172
sVrockefeller
p3231
I6090
sVclean
p3232
I2254
sVcelebrated
p3233
I3559
sVvindication
p3234
I7112
sVcelebrities
p3235
I5113
sVsheik
p3236
I5397
sVnca
p3237
I7581
sVnorthern
p3238
I527
sVjustice
p3239
I851
sVinaugurated
p3240
I5782
sVflights
p3241
I2133
sVrandy
p3242
I4940
sVsurveyed
p3243
I4655
sVpretty
p3244
I1825
sVcircle
p3245
I3392
sVpolicing
p3246
I6486
sVmeanwhile
p3247
I1022
sVdomestic
p3248
I1130
sVzambia
p3249
I4435
sVgrocery
p3250
I5469
sVfeels
p3251
I3292
sVassaulted
p3252
I6453
sVpretending
p3253
I6799
sVbasement
p3254
I5165
sVduring
p3255
I105
sVintensify
p3256
I6345
sValexander
p3257
I2210
sVgloved
p3258
I7484
sVleft-wing
p3259
I7008
sVretaliation
p3260
I5061
sVwithdrawal
p3261
I2716
sVswitzerland
p3262
I2146
sVpoisoned
p3263
I6607
sVgoodenow
p3264
I7594
sVmaurice
p3265
I5348
sVthrowing
p3266
I3734
sVprague
p3267
I4748
sVculture
p3268
I1257
sVdescriptions
p3269
I6346
sVclose
p3270
I381
sVconstellation
p3271
I6581
sVlocals
p3272
I5003
sVprobable
p3273
I6019
sVpictures
p3274
I2299
sVglenbrook
p3275
I7788
sV0915
p3276
I7840
sVwon
p3277
I226
sVgrandparents
p3278
I6319
sVprobably
p3279
I941
sVconditions
p3280
I1091
sVpiss
p3281
I7741
sVunconscious
p3282
I6306
sVmissing
p3283
I1449
sVgenri
p3284
I7984
sVinvisible
p3285
I6155
sVhardline
p3286
I5255
sVabruptly
p3287
I6084
sVboth
p3288
I150
sVnear-simultaneous
p3289
I7991
sVfiance
p3290
I7028
sVsecond-largest
p3291
I7349
sVforgotten
p3292
I4955
sVrodgers
p3293
I6644
sVliked
p3294
I4279
sVjeff
p3295
I2883
sVbattery
p3296
I4373
sVwhatever
p3297
I2459
sVskips
p3298
I7443
sVvessel
p3299
I3659
sVdescribed
p3300
I955
sVstamp
p3301
I5002
sVigor
p3302
I5498
sVmaintenance
p3303
I3625
sVairstrikes
p3304
I5371
sVthreaten
p3305
I4542
sVterritory
p3306
I1402
sVwalter
p3307
I3349
sVimam
p3308
I5847
sVsanders
p3309
I5296
sVlived
p3310
I1513
sVelse
p3311
I1647
sVdetermination
p3312
I4095
sVcompromised
p3313
I6484
sVbidding
p3314
I4757
sVloom
p3315
I6917
sVlook
p3316
I653
sVconspirator
p3317
I7220
sVsocialist
p3318
I3005
sVcanadian
p3319
I1168
sVgovernor
p3320
I980
sVpace
p3321
I2235
sVwhile
p3322
I110
sVfleet
p3323
I2607
sVloot
p3324
I7025
sVguide
p3325
I2963
sVpack
p3326
I4066
sVcostly
p3327
I4798
sVvoters
p3328
I1160
sVwherever
p3329
I5745
sVreads
p3330
I5241
sVready
p3331
I1155
sValbany
p3332
I5174
sVshaq
p3333
I6922
sVanymore
p3334
I4354
sVgrant
p3335
I2197
sVmakeshift
p3336
I6012
sVkarl
p3337
I3999
sVgrand
p3338
I1033
sVshah
p3339
I3951
sVconflict
p3340
I1264
sVappropriations
p3341
I6103
sVused
p3342
I180
sVtemporary
p3343
I2791
sVblair
p3344
I2189
sV42nd
p3345
I6638
sVyoungsters
p3346
I5850
sVuses
p3347
I1932
sVyeltsin
p3348
I2622
sVreinforcements
p3349
I6104
sVbrussels
p3350
I3304
sVkurdish
p3351
I3222
sVolder
p3352
I1511
sVcruz
p3353
I4689
sVobviously
p3354
I2992
sVmcchrystal
p3355
I6839
sVsecession
p3356
I6490
sVyankees
p3357
I2751
sVcoup
p3358
I2630
sVsettlements
p3359
I3368
sVquarters
p3360
I3558
sVfaisal
p3361
I6509
sVuseful
p3362
I3814
sVtaiwan
p3363
I685
sVretirement
p3364
I2303
sV$
p3365
I80
sVwounding
p3366
I4550
sVinformal
p3367
I4893
sVcemetery
p3368
I3419
sVquestioned
p3369
I2974
sVballots
p3370
I3722
sVguarantees
p3371
I4565
sVventures
p3372
I5051
sV...
p3373
I432
sVmarch
p3374
I302
sVlacking
p3375
I5345
sVshowing
p3376
I1804
sVgame
p3377
I186
sVpopulous
p3378
I5851
sVoverthrown
p3379
I6848
sVoutright
p3380
I5313
sVparamilitary
p3381
I4740
sVinviting
p3382
I6189
sVtoyota
p3383
I3347
sVbbc
p3384
I2762
sVprovoking
p3385
I6634
sVdonna
p3386
I5818
sVpopular
p3387
I799
sVparade
p3388
I3872
sVcreation
p3389
I2452
sVsome
p3390
I77
sVtrends
p3391
I4735
sVeconomic
p3392
I250
sVanti-american
p3393
I7739
sVgracie
p3394
I7142
sVcriminalising
p3395
I7869
sVdelivered
p3396
I2512
sVqatar
p3397
I4090
sVdescribing
p3398
I4129
sVsignifies
p3399
I7056
sVdeducts
p3400
I7856
sVminimal
p3401
I5243
sVfoley
p3402
I5865
sVsympathetic
p3403
I5813
sVclaimed
p3404
I1074
sVrun
p3405
I305
sVstem
p3406
I3601
sVstep
p3407
I1034
sVlasts
p3408
I6457
sVdae-jung
p3409
I7928
sVabroad
p3410
I2317
sV77
p3411
I4292
sVconrad
p3412
I6181
sVandromeda
p3413
I7458
sVletup
p3414
I7614
sVpapua
p3415
I5705
sVcongressman
p3416
I4906
sVsilence
p3417
I4107
sVseeing
p3418
I2439
sVenduring
p3419
I5932
sVwithin
p3420
I423
sVguangdong
p3421
I5056
sVpentagon
p3422
I2515
sVrenewal
p3423
I5701
sVplacing
p3424
I4579
sVconsultation
p3425
I5639
sVheritage
p3426
I3021
sVstreicher
p3427
I7766
sVbzw
p3428
I7476
sVhimself
p3429
I661
sVcollapsed
p3430
I3276
sVreiterated
p3431
I4112
sVcalgary
p3432
I5552
sVproperly
p3433
I3978
sVreed
p3434
I4436
sVauthority
p3435
I1085
sVrussian
p3436
I465
sVceremonies
p3437
I4898
sVfda
p3438
I4286
sVrestarted
p3439
I6881
sVpsychosis
p3440
I7315
sVfdr
p3441
I7150
sVaccustomed
p3442
I6407
sVembattled
p3443
I5867
sVsimilar
p3444
I780
sVslobodan
p3445
I5154
sVordered
p3446
I1260
sVadults
p3447
I3097
sVkarbala
p3448
I6595
sVunwise
p3449
I7110
sVhalifax
p3450
I6234
sVamounts
p3451
I3578
sVfears
p3452
I2027
sVnam
p3453
I6221
sVapplication
p3454
I2880
sVpoliticians
p3455
I2196
sVelectrical
p3456
I3899
sVtransport
p3457
I1784
sVdepartment
p3458
I356
sVmanhattan
p3459
I2661
sVwished
p3460
I5642
sVdraw
p3461
I1630
sVreportedly
p3462
I2367
sVre-election
p3463
I6668
sVkansas
p3464
I2103
sVresign
p3465
I3745
sVregulations
p3466
I2765
sVmilitants
p3467
I1337
sVvalidity
p3468
I6549
sVreservation
p3469
I5754
sVhanover
p3470
I6443
sVurged
p3471
I1382
sVmegawati
p3472
I6287
sVrequired
p3473
I1341
sVresolving
p3474
I5683
sVorbit
p3475
I4919
sVneighbouring
p3476
I4415
sVrequires
p3477
I2674
sVsounded
p3478
I5062
sVge
p3479
I5569
sVga
p3480
I6375
sVgo
p3481
I241
sVbirthplace
p3482
I6131
sVmarginalisation
p3483
I7670
sVmosque
p3484
I3322
sVsuits
p3485
I4405
sVattackers
p3486
I4833
sVanti-semitism
p3487
I7357
sVexcluded
p3488
I5448
sVfriendly
p3489
I2366
sVrelocated
p3490
I5384
sVwave
p3491
I2461
sVnichols
p3492
I5855
sVcellular
p3493
I5119
sVtelling
p3494
I2563
sVstiff
p3495
I5440
sVgender
p3496
I4170
sVmichael
p3497
I772
sVryan
p3498
I3064
sVverdict
p3499
I3614
sVzeming
p3500
I7970
sVbarbara
p3501
I3782
sVenforce
p3502
I5029
sVdefiling
p3503
I7849
sVcompensated
p3504
I6742
sVriyadh
p3505
I5873
sVpunishing
p3506
I6515
sVjump
p3507
I2772
sVkirkuk
p3508
I6178
sVpicked
p3509
I2333
sVnotwithstanding
p3510
I6782
sVplays
p3511
I1336
sVcolonel
p3512
I3576
sVgen.
p3513
I2485
sVvolatile
p3514
I4364
sVcollins
p3515
I4033
sV;
p3516
I89
sVtournaments
p3517
I4394
sVdenunciations
p3518
I7393
sVstance
p3519
I3693
sVcommercial
p3520
I1162
sVfollowing
p3521
I282
sVfocused
p3522
I2168
sVkidnapped
p3523
I3742
sVkissinger
p3524
I6790
sVwithdrawing
p3525
I5800
sVneurosurgeon
p3526
I7454
sVexamining
p3527
I5391
sVdaybreak
p3528
I7127
sVairspace
p3529
I5902
sVdanger
p3530
I2736
sVwin
p3531
I318
sVmanage
p3532
I3523
sVaddressed
p3533
I3829
sVbuildup
p3534
I6179
sVcloud
p3535
I4611
sVstrapped
p3536
I5910
sVremains
p3537
I925
sVhudson
p3538
I4431
sVcamera
p3539
I3074
sVvehicle
p3540
I1813
sVjonathan
p3541
I3882
sVhistorically
p3542
I4407
sVindefensible
p3543
I7452
sVbelgian
p3544
I3431
sVformally
p3545
I3012
sV1/2
p3546
I2421
sVbiblical
p3547
I5641
sVstarted
p3548
I548
sVbecomes
p3549
I2279
sVtestified
p3550
I3866
sVmissile
p3551
I1953
sVisraelis
p3552
I2708
sVappointed
p3553
I1328
sVstarter
p3554
I4403
sVannouncing
p3555
I4231
sVsanctions
p3556
I1689
sVsalam
p3557
I6714
sVrecession
p3558
I2681
sVcrossed
p3559
I3650
sVmeet
p3560
I691
sVnurture
p3561
I6969
sVdrops
p3562
I4942
sVcontrol
p3563
I422
sVbeijing
p3564
I919
sVkenny
p3565
I5259
sVlinks
p3566
I2207
sVsacking
p3567
I6793
sVescaped
p3568
I3591
sVus-canada
p3569
I7990
sVpulling
p3570
I4263
sVsought
p3571
I1682
sVhit
p3572
I414
sVhesitate
p3573
I6697
sVjails
p3574
I6329
sVafricans
p3575
I5138
sVarrangement
p3576
I4124
sVlocated
p3577
I696
sV155
p3578
I6314
sVblackstone
p3579
I6928
sVfarc
p3580
I5451
sVfarm
p3581
I1877
sVchiefs
p3582
I3496
sVspelling
p3583
I5660
sV12-14
p3584
I7479
sVadvocated
p3585
I5834
sVadvocates
p3586
I3787
sVagenda
p3587
I2552
sVlatifiya
p3588
I7876
sVexecutives
p3589
I1989
sVunsolved
p3590
I6838
sVoffences
p3591
I6616
sVgunman
p3592
I5286
sVkoranic
p3593
I7551
sVcruise
p3594
I3740
sVmentioned
p3595
I2730
sVjacque
p3596
I7518
sVhelicopters
p3597
I3360
sVouter
p3598
I4789
sVguerrilla
p3599
I4053
sVbackers
p3600
I5812
sVnetanya
p3601
I7226
sVgovernment-led
p3602
I7987
sVkoreans
p3603
I4599
sVhands
p3604
I1243
sVfront
p3605
I660
sVrefuel
p3606
I7251
sVkilometres
p3607
I3538
sVpre-war
p3608
I7164
sVsidenote
p3609
I7994
sVuniversity
p3610
I220
sVadjournment
p3611
I7374
sVguard
p3612
I1345
sVregistrations
p3613
I7048
sVslide
p3614
I4339
sVfirings
p3615
I6958
sVcrossing
p3616
I3073
sVshaking
p3617
I5678
sVankles
p3618
I7073
sVmalfeasance
p3619
I7447
sVglobe
p3620
I3103
sVserbia
p3621
I2267
sVconstitute
p3622
I5715
sV24-year-old
p3623
I7738
sVmeasure
p3624
I1685
sVseparating
p3625
I6229
sVmargins
p3626
I5143
sVspecial
p3627
I553
sVsecretly
p3628
I5268
sVentertainment
p3629
I1925
sVarmor
p3630
I5901
sVbanco
p3631
I6355
sVcritics
p3632
I1645
sVactivist
p3633
I3609
sVcause
p3634
I1124
sVumbrella
p3635
I5664
sVfalluja
p3636
I7805
sVhumiliating
p3637
I6534
sVdelegates
p3638
I3086
sVattending
p3639
I3205
sVcompletely
p3640
I2066
sVretry
p3641
I7575
sVadvisor
p3642
I4916
sV1982
p3643
I2460
sV20,000
p3644
I3402
sVprincess
p3645
I3543
sVresumed
p3646
I3800
sVhostile
p3647
I4126
sVroute
p3648
I1276
sVflorida
p3649
I927
sVconfident
p3650
I2710
sVtimes
p3651
I245
sVcounterpart
p3652
I3426
sVtimed
p3653
I6214
sVaustin
p3654
I2998
sVpossessing
p3655
I6505
sVpowerful
p3656
I1466
sVcongo
p3657
I3190
sVprecisely
p3658
I5219
sVclearinghouse
p3659
I7216
sVmanagement
p3660
I828
sVbears
p3661
I3707
sVdata
p3662
I911
sVadopted
p3663
I2040
sVattack
p3664
I434
sVvile
p3665
I7189
sVperfectly
p3666
I4941
sVfinal
p3667
I292
sVviktor
p3668
I5111
sVpunish
p3669
I5274
sVexactly
p3670
I2546
sVlists
p3671
I3640
sVcredibility
p3672
I4389
sVdjindjic
p3673
I6663
sVoverwhelming
p3674
I4610
sVherself
p3675
I2649
sVben
p3676
I2441
sVmanning
p3677
I5201
sVsubmitted
p3678
I3593
sVproviding
p3679
I1941
sVdistinguished
p3680
I4225
sVbet
p3681
I4327
sVdrunk
p3682
I5586
sVlightly
p3683
I5375
sVenforces
p3684
I7325
sVportrait
p3685
I4514
sVneed
p3686
I406
sVinterrogating
p3687
I7261
sVborder
p3688
I709
sVscrew
p3689
I6715
sVable
p3690
I658
sVbattles
p3691
I3764
sVinstance
p3692
I2866
sVrelatives
p3693
I2621
sVissuing
p3694
I5189
sV2.5
p3695
I3295
sVtactic
p3696
I6005
sVtruck
p3697
I2372
sVmedals
p3698
I3408
sVdeploy
p3699
I5341
sVtechnicality
p3700
I7331
sVthorns
p3701
I7367
sVmontana
p3702
I4718
sVconnected
p3703
I2876
sVbut
p3704
I34
sVawe
p3705
I6767
sVexpired
p3706
I5414
sVstereo
p3707
I6544
sVhaifa
p3708
I6558
sVconsequences
p3709
I3379
sVmarkovic
p3710
I7129
sVproceedings
p3711
I4008
sVcentcom
p3712
I7583
sVimpression
p3713
I4670
sVparker
p3714
I4043
sVviolation
p3715
I3792
sVsent
p3716
I679
sVanyway
p3717
I4194
sVhalting
p3718
I6467
sVparked
p3719
I5577
sVsoldiers
p3720
I657
sVpartners
p3721
I2046
sVbased
p3722
I242
sV(
p3723
I23
sVwinner
p3724
I1320
sVhopeful
p3725
I4647
sVemployer
p3726
I4922
sVbases
p3727
I3000
sVemployee
p3728
I3178
sVemployed
p3729
I3266
sVcrumbling
p3730
I6631
sVmichigan
p3731
I2097
sVoverall
p3732
I1215
sVmgm
p3733
I6186
sVb-2
p3734
I7223
sVjoint
p3735
I1051
sVb-1
p3736
I7525
sVlegitimate
p3737
I3974
sVjoins
p3738
I5177
sVmagistrate
p3739
I5590
sVbuyer
p3740
I5234
sVkong
p3741
I717
sVprocedures
p3742
I3554
sVendless
p3743
I5845
sVprocesses
p3744
I4548
sVplaces
p3745
I1374
sVtrucks
p3746
I3112
sVcourse
p3747
I736
sVshy
p3748
I5192
sVmohammed
p3749
I2801
sVshe
p3750
I67
sVdangerous
p3751
I2132
sVflogged
p3752
I7586
sVwidow
p3753
I4791
sVaccuses
p3754
I5001
sVprayers
p3755
I4864
sVchirac
p3756
I3329
sVhumans
p3757
I3245
sVfreeze
p3758
I4180
sVobliterating
p3759
I7697
sVreinforce
p3760
I5866
sVofficials
p3761
I148
sVyugoslavia
p3762
I2642
sVdesperate
p3763
I4146
sVnightmare
p3764
I5576
sVhorribly
p3765
I7182
sVtend
p3766
I3375
sVstate
p3767
I92
sVhorrible
p3768
I5952
sVtens
p3769
I3185
sVneither
p3770
I2087
sVtent
p3771
I5381
sVken
p3772
I3721
sVimportance
p3773
I2393
sVkhartoum
p3774
I5230
sVinterfere
p3775
I5837
sVkicking
p3776
I5632
sVkey
p3777
I631
sVapproval
p3778
I1875
sVmujahideen
p3779
I7179
sVdistribution
p3780
I2331
sVthank
p3781
I4267
sVhits
p3782
I1922
sVlimits
p3783
I2804
sVcareer
p3784
I430
sVminds
p3785
I4417
sVadmit
p3786
I4654
sVa.m.
p3787
I1698
sVpublicized
p3788
I6358
sVqawasmeh
p3789
I7807
sVjersey
p3790
I1624
sVjim
p3791
I1900
sVdiplomats
p3792
I2750
sVcolonisation
p3793
I7517
sVtori
p3794
I7293
sVtuesday
p3795
I171
sVdenise
p3796
I6657
sVkings
p3797
I3344
sVquit
p3798
I3315
sVantasari
p3799
I7937
sVaddition
p3800
I1041
sVpio
p3801
I7318
sVcent
p3802
I3618
sVimmense
p3803
I6119
sVslowly
p3804
I3309
sVtreat
p3805
I3587
sVpoet
p3806
I3880
sVsars
p3807
I4055
sVisolating
p3808
I6997
sVhernandez
p3809
I5212
sVkingston
p3810
I6003
sVcontrolled
p3811
I1901
sVleague
p3812
I290
sVvince
p3813
I6130
sVreleasing
p3814
I4793
sVtopless
p3815
I7147
sVhamburg
p3816
I4892
sVsmoking
p3817
I3622
sVnovel
p3818
I1886
sVstinnett
p3819
I7590
sVharder
p3820
I3620
sVpiloting
p3821
I7243
sVresident
p3822
I3184
sVsurface
p3823
I2123
sVbordello
p3824
I7686
sVswinging
p3825
I6434
sVominously
p3826
I7287
sVbucks
p3827
I5915
sVcapture
p3828
I2977
sVbegan
p3829
I307
sVstrange
p3830
I4079
sVspeaker
p3831
I2272
sVnorthwest
p3832
I2081
sVincumbent
p3833
I4285
sVmirjana
p3834
I7410
sVunderground
p3835
I3176
sVparty
p3836
I165
sVhardliner
p3837
I7296
sVdiyala
p3838
I6765
sVappearances
p3839
I2722
sVbuzz
p3840
I5796
sVeffect
p3841
I1225
sVprivations
p3842
I7787
sVfierce
p3843
I3950
sVfrequently
p3844
I2598
sVdestruction
p3845
I2465
sVrift
p3846
I5905
sVtransaction
p3847
I4554
sVlunch
p3848
I3483
sVi
p3849
I41
sVvariety
p3850
I2025
sVwell
p3851
I143
sVstoplight
p3852
I7666
sVrife
p3853
I6774
sVtrials
p3854
I3296
sVrestore
p3855
I3127
sVdiscord
p3856
I6957
sVincreasingly
p3857
I1984
sVaccurate
p3858
I4343
sVyukos
p3859
I6352
sVmistaken
p3860
I6259
sV43
p3861
I3054
sVsources
p3862
I1068
sVdistant
p3863
I4758
sVlately
p3864
I5476
sVcoordination
p3865
I4681
sV7,000
p3866
I5054
sVheaded
p3867
I1723
sVnato
p3868
I922
sVkick
p3869
I2956
sVfate
p3870
I3297
sVmunich
p3871
I3823
sVbozize
p3872
I7298
sVportas
p3873
I7568
sVhistoric
p3874
I1525
sVimmediately
p3875
I1013
sV269
p3876
I7078
sVprominent
p3877
I2136
sVloss
p3878
I850
sVlincoln
p3879
I3451
sVnecessary
p3880
I1444
sVlost
p3881
I400
sVdonovin
p3882
I7964
sVcandy
p3883
I5500
sVroth
p3884
I6030
sVpayments
p3885
I2778
sVlose
p3886
I1801
sVrefugees
p3887
I1747
sVshed
p3888
I3886
sVsaiga
p3889
I7812
sVcleveland
p3890
I2928
sVhome
p3891
I163
sVpeter
p3892
I1256
sVbroad
p3893
I2344
sVe-mail
p3894
I7123
sVintersections
p3895
I6938
sVdemonstrated
p3896
I3981
sVlimitations
p3897
I5621
sVreaching
p3898
I2232
sVjournal
p3899
I1416
sVmonetary
p3900
I2678
sVexpansion
p3901
I2179
sVbalkans
p3902
I5357
sVchoked
p3903
I6803
sVmisrepresentation
p3904
I7417
sVdaschle
p3905
I6215
sVfreedom
p3906
I1566
sVrecognized
p3907
I2594
sVizzah
p3908
I7935
sVpersuaded
p3909
I5294
sVgeragos
p3910
I7364
sV13-year-old
p3911
I7667
sVcelebrations
p3912
I4571
sVpreviously
p3913
I1376
sVwashington
p3914
I287
sVh.
p3915
I2984
sVsecretive
p3916
I6591
sVcapable
p3917
I2999
sVmanaging
p3918
I2989
sVadditional
p3919
I1359
sVmuseum
p3920
I1100
sVimperial
p3921
I3665
sVaccountant
p3922
I6482
sVinner
p3923
I3720
sVnasiriya
p3924
I7792
sVexposure
p3925
I3853
sVrecruited
p3926
I4901
sVbutai
p3927
I7969
sVmylan
p3928
I7733
sVwilliamson
p3929
I6128
sVnorth
p3930
I193
sVhq
p3931
I7022
sVxerox
p3932
I6750
sVhu
p3933
I3542
sVjubilation
p3934
I7310
sVneutral
p3935
I4440
sVho
p3936
I4309
sVcourts
p3937
I2259
sVhighest
p3938
I1206
sVeat
p3939
I3135
sVhe
p3940
I18
sVcells
p3941
I2530
sVhosting
p3942
I4764
sVsigned
p3943
I748
sVlimit
p3944
I2319
sVpiece
p3945
I2198
sVdisplay
p3946
I2604
sVurging
p3947
I3682
sVmechanics
p3948
I5620
sVuniversal
p3949
I3113
sVpenny
p3950
I5551
sVtwist
p3951
I5473
sViman
p3952
I7416
sVeducation
p3953
I624
sVcavalry
p3954
I5077
sVfunctions
p3955
I3600
sVrumors
p3956
I4441
sVcontest
p3957
I2659
sVoffensive
p3958
I1908
sVparatroopers
p3959
I6944
sVwestminster
p3960
I5929
sVtrebling
p3961
I7917
sVstar
p3962
I743
sVstay
p3963
I1056
sVstab
p3964
I6856
sVadditionally
p3965
I4747
sVdeter
p3966
I6225
sVfriends
p3967
I1064
sVappoint
p3968
I5487
sVparole
p3969
I5675
sVoffenses
p3970
I5830
sVportion
p3971
I2650
sVdiagnosis
p3972
I5640
sVlives
p3973
I949
sVayyoub
p3974
I7908
sVpardon
p3975
I6014
sVandre
p3976
I4632
sVprotest
p3977
I1495
sVasian
p3978
I943
sVundersecretary
p3979
I6325
sVwhose
p3980
I505
sVfronts
p3981
I6197
sVbuddy
p3982
I5785
sVpensions
p3983
I5718
sVcondemns
p3984
I6137
sVteaching
p3985
I2824
sVsorry
p3986
I4650
sVupdated
p3987
I4528
sVrescue
p3988
I1800
sVhomes
p3989
I1250
sVgeorgia
p3990
I1470
sVreforms
p3991
I2100
sVaffect
p3992
I2836
sVvast
p3993
I2755
sVcrops
p3994
I4158
sVcompanies
p3995
I335
sVsolution
p3996
I1993
sVkcna
p3997
I6847
sVindefinitely
p3998
I5793
sVheading
p3999
I2941
sVclothes
p4000
I3383
sV10k
p4001
I7404
sVforce
p4002
I350
sVwarns
p4003
I4872
sVjapanese
p4004
I616
sVacross
p4005
I529
sVlikely
p4006
I640
sVeven
p4007
I151
sVwreck
p4008
I5897
sVintegrity
p4009
I4239
sVasia
p4010
I815
sVspokesman
p4011
I389
sVhaza
p4012
I7853
sVdr.
p4013
I1301
sVnew
p4014
I50
sVever
p4015
I652
sVnever
p4016
I330
sVdrew
p4017
I2242
sVmet
p4018
I796
sVpossibility
p4019
I2035
sVactive
p4020
I1483
sV100
p4021
I554
sV101
p4022
I5245
sV105
p4023
I5389
sVtapes
p4024
I5170
sVeconomics
p4025
I3171
sVignoring
p4026
I5692
sVeh
p4027
I6385
sVcredit
p4028
I1131
sVomar
p4029
I4089
sVpermit
p4030
I4134
sVsuitable
p4031
I4965
sVplea
p4032
I4421
sVcampaign
p4033
I396
sVobjectively
p4034
I7253
sVcounty
p4035
I384
sVmoral
p4036
I3391
sVguests
p4037
I3404
sVdrowned
p4038
I5893
sVpyongyang
p4039
I3594
sVwelch
p4040
I6420
sVjanine
p4041
I7453
sVcounts
p4042
I3627
sVcriminals
p4043
I4119
sVarmy
p4044
I328
sVarms
p4045
I1262
sVglobe-trotting
p4046
I7975
sVcall
p4047
I576
sVcalm
p4048
I3278
sVrecommend
p4049
I5125
sVrobertson
p4050
I4928
sVtype
p4051
I1491
sVtell
p4052
I1317
sVsupporters
p4053
I1399
sVwary
p4054
I5327
sVschroeder
p4055
I4446
sVwars
p4056
I2790
sVwarn
p4057
I4944
sVdisruption
p4058
I6134
sVberlin
p4059
I2307
sVwarm
p4060
I3080
sVadult
p4061
I2921
sVward
p4062
I3480
sVshahid
p4063
I6927
sVbooby-trapped
p4064
I7905
sVroom
p4065
I906
sVrights
p4066
I415
sVgasoline
p4067
I3232
sVroof
p4068
I3424
sVroot
p4069
I4209
sVgive
p4070
I453
sVinvolve
p4071
I4128
sV10,000
p4072
I2394
sVadvancing
p4073
I4755
sVaging
p4074
I4541
sVautonomy
p4075
I4106
sVsideline
p4076
I6341
sVkabul
p4077
I3244
sVanswer
p4078
I2028
sVaboard
p4079
I3020
sVminority
p4080
I2175
sVreplacing
p4081
I4001
sVvicious
p4082
I6183
sVschoolchildren
p4083
I6659
sV1980-1988
p4084
I7572
sVpresident
p4085
I90
sVpurchase
p4086
I2310
sVguerilla
p4087
I7225
sVattempt
p4088
I1230
sVthird
p4089
I244
sVloyalists
p4090
I6194
sVsliced
p4091
I6349
sVcapitalism
p4092
I6238
sVmaintain
p4093
I2044
sVwaited
p4094
I4515
sVoperations
p4095
I809
sVfetus
p4096
I6797
sVdeck
p4097
I4831
sVwindshield
p4098
I6962
sVbefore
p4099
I106
sVduisburg
p4100
I7174
sV10.3
p4101
I6804
sVpersonal
p4102
I874
sVhezbollah
p4103
I2840
sV,
p4104
I2
sVcrew
p4105
I1618
sVbetter
p4106
I437
sVdamascus
p4107
I4568
sVwaksal
p4108
I7538
sVdifferently
p4109
I5326
sVstalemate
p4110
I6364
sVweeks
p4111
I515
sVdonors
p4112
I4021
sVcombination
p4113
I2983
sVintimidation
p4114
I5926
sVgazprom
p4115
I6077
sVrhetoric
p4116
I4966
sVarrested
p4117
I878
sVfringes
p4118
I6934
sVwent
p4119
I386
sVoperatives
p4120
I6353
sVside
p4121
I435
sVbone
p4122
I4099
sVmean
p4123
I1625
sVpay-per-view
p4124
I7302
sVprinciples
p4125
I3302
sVanti-
p4126
I6597
sVtaught
p4127
I2926
sVtrading
p4128
I841
sVdoug
p4129
I4679
sVnavy
p4130
I1445
sVaids
p4131
I2085
sVdawn
p4132
I3790
sVrestricted
p4133
I4290
sVcrucial
p4134
I2614
sVmccarthy
p4135
I5545
sVcontent
p4136
I2524
sVsurprise
p4137
I2440
sVparks
p4138
I3390
sVturning
p4139
I2335
sVcutest
p4140
I7782
sVresume
p4141
I2744
sVu.s.
p4142
I99
sVrevenge
p4143
I4230
sVstruggle
p4144
I2430
sVmistress
p4145
I6609
sVcolumbians
p4146
I7868
sVstarts
p4147
I2212
sVmessages
p4148
I3365
sVmoving
p4149
I1199
sVstewart
p4150
I3081
sVgrade
p4151
I2571
sVexecutions
p4152
I5619
sVhook
p4153
I5252
sVhoon
p4154
I6893
sV31-year-old
p4155
I7833
sVditch
p4156
I6107
sVhood
p4157
I5185
sVyuan
p4158
I1735
sVgirls
p4159
I1845
sVkizilay
p4160
I7958
sVdwell
p4161
I6949
sVhollywood
p4162
I2130
sVweddings
p4163
I6580
sVnosta
p4164
I7962
sVescort
p4165
I5566
sVparis-based
p4166
I7813
sVsomewhat
p4167
I3239
sVuscf
p4168
I7867
sVba'ath
p4169
I7584
sVbegins
p4170
I2118
sVdistance
p4171
I2134
sVanxiety
p4172
I5098
sVenabled
p4173
I5279
sVmatter
p4174
I1087
sVpersuade
p4175
I4213
sVbiochemical
p4176
I7171
sVenables
p4177
I6233
sVminh
p4178
I6330
sVmini
p4179
I4760
sVsees
p4180
I2775
sVpalace
p4181
I2337
sVpistons
p4182
I6391
sVmind
p4183
I1601
sVmine
p4184
I2227
sVseen
p4185
I539
sVseem
p4186
I1818
sVseek
p4187
I1678
sVtells
p4188
I2676
sVafula
p4189
I7561
sVout-of-court
p4190
I7784
sVchest
p4191
I4393
sVniece
p4192
I6569
sVmoscow
p4193
I1300
sVquarterback
p4194
I3173
sVatman
p4195
I7822
sVregular
p4196
I1340
sVself-confessed
p4197
I7878
sVmitigate
p4198
I6889
sVdon
p4199
I2923
sVdoc
p4200
I6546
sVmedical
p4201
I739
sVdog
p4202
I2637
sVcompetitors
p4203
I3732
sVpoints
p4204
I225
sVprinciple
p4205
I3283
sVconsumer
p4206
I1434
sVkut
p4207
I7138
sVambassador
p4208
I1717
sVprobe
p4209
I3128
sVending
p4210
I1844
sVdeadliest
p4211
I5760
sVattempts
p4212
I2264
sVpoison
p4213
I5731
sVstepping
p4214
I4964
sVjudges
p4215
I2543
sVnortheast
p4216
I2385
sVexplain
p4217
I2979
sVdebts
p4218
I4399
sVunleashed
p4219
I6269
sVstabbing
p4220
I6656
sVfolks
p4221
I4606
sVjailed
p4222
I3857
sVwearing
p4223
I2516
sVexports
p4224
I1803
sVreconstruction
p4225
I3454
sVstop
p4226
I821
sVcoast
p4227
I930
sVchristopher
p4228
I2886
sVu.n.
p4229
I720
sVcomply
p4230
I4605
sVbar
p4231
I1944
sV17
p4232
I749
sVfields
p4233
I2144
sVbay
p4234
I1220
sVillegitimate
p4235
I6594
sVbag
p4236
I3856
sVbad
p4237
I954
sVbriefed
p4238
I5567
sVseeks
p4239
I3530
sVfavors
p4240
I5281
sVban
p4241
I1321
sVzoran
p4242
I6784
sVethical
p4243
I5411
sVdecides
p4244
I4517
sVreference
p4245
I2680
sVtesting
p4246
I2371
sVzones
p4247
I4241
sVdecided
p4248
I831
sVstartups
p4249
I7200
sVsubject
p4250
I1622
sVlancaster
p4251
I6275
sVvoyage
p4252
I5606
sVsaid
p4253
I16
sVinappropriate
p4254
I5690
sVmiana
p4255
I7977
sVscrap
p4256
I5628
sVsail
p4257
I5544
sVmismanaging
p4258
I7602
sVtantamount
p4259
I6980
sVtuberville
p4260
I7626
sVsorts
p4261
I5465
sVtolerance
p4262
I5264
sVvows
p4263
I5572
sVblitzer
p4264
I7541
sVharvard
p4265
I2934
sVcousin
p4266
I4287
sVsuggested
p4267
I1497
sVremarried
p4268
I6929
sVerdogan
p4269
I5724
sVagainst
p4270
I98
sVfeathering
p4271
I7783
sVrestarting
p4272
I7050
sVcontribution
p4273
I3540
sVpresumably
p4274
I5376
sVappeared
p4275
I776
sVguaranteed
p4276
I4555
sVinitiative
p4277
I2612
sVquinn
p4278
I5890
sVaftermath
p4279
I4242
sVsprings
p4280
I4172
sVtargeting
p4281
I4308
sVnicer
p4282
I7248
sVasks
p4283
I3791
sVbasis
p4284
I1459
sVthree
p4285
I87
sVtiny
p4286
I2904
sVcommission
p4287
I620
sVmcveigh
p4288
I5943
sVtrigger
p4289
I4781
sVinterest
p4290
I556
sVbasic
p4291
I1893
sVentered
p4292
I1615
sVlovely
p4293
I6166
sVidol
p4294
I5413
sVthrew
p4295
I2900
sVdeeper
p4296
I4583
sVprosperous
p4297
I5846
sVdismiss
p4298
I5702
sVlocations
p4299
I3218
sV168
p4300
I6627
sVpersonally
p4301
I3801
sVaviation
p4302
I2771
sVtalib
p4303
I7218
sV160
p4304
I4544
sVziggurat
p4305
I7797
sVmohammad
p4306
I3806
sVexception
p4307
I3943
sVtank
p4308
I2865
sVremaining
p4309
I1464
sVugly
p4310
I5317
sVnear
p4311
I353
sVsuppose
p4312
I6361
sVmurders
p4313
I4529
sVstudy
p4314
I793
sVchilling
p4315
I6603
sVseven
p4316
I436
sVmexico
p4317
I840
sVis
p4318
I14
sVit
p4319
I20
sVii
p4320
I803
sVshame
p4321
I5380
sVin
p4322
I7
sV80,000
p4323
I5716
sVseattle
p4324
I2358
sVid
p4325
I5849
sVdisappear
p4326
I5862
sVif
p4327
I83
sVgrown
p4328
I2583
sVbottles
p4329
I5105
sVoccupied
p4330
I2698
sVmake
p4331
I159
sVpotentially
p4332
I3481
sVunfortunate
p4333
I5490
sVcolonies
p4334
I5553
sVsidelines
p4335
I4958
sVentitled
p4336
I3197
sVmeets
p4337
I2946
sVdeclaring
p4338
I4998
sVdelight
p4339
I6377
sVkim
p4340
I1902
sVopportunity
p4341
I1476
sVthoughts
p4342
I4733
sVkid
p4343
I3581
sVprograms
p4344
I985
sVsettled
p4345
I2582
sVfailing
p4346
I2895
sVpractices
p4347
I2879
sVclaims
p4348
I1231
sV800
p4349
I3241
sVinvestments
p4350
I2770
sVleft
p4351
I217
sVprotocol
p4352
I4325
sVjust
p4353
I120
sVsentence
p4354
I2247
sVunfair
p4355
I4566
sVassigned
p4356
I2905
sVfighters
p4357
I2180
sVpsych
p4358
I7588
sVhuman
p4359
I471
sVfacts
p4360
I3694
sVyes
p4361
I2528
sVbiggest-selling
p4362
I7749
sVyet
p4363
I549
sVimpending
p4364
I6401
sVmasse
p4365
I6942
sVbuyers
p4366
I3692
sVbelfast
p4367
I5232
sVcandidate
p4368
I1204
sVlegion
p4369
I5909
sVassassination
p4370
I3534
sVcharacter
p4371
I1350
sVpotential
p4372
I1123
sVsave
p4373
I1671
sVsailors
p4374
I5039
sVdestroy
p4375
I3719
sVopn
p4376
I7889
sVshoulder
p4377
I3346
sVdignity
p4378
I5236
sVpatience
p4379
I5306
sV1559
p4380
I7190
sVperforming
p4381
I2949
sVmanual
p4382
I4934
sVunnecessary
p4383
I5515
sVdean
p4384
I2877
sVdeal
p4385
I433
sVsomehow
p4386
I4575
sVdead
p4387
I756
sVdear
p4388
I5489
sVrepelling
p4389
I7569
sV66-pound
p4390
I7992
sVseparately
p4391
I4113
sVore.
p4392
I6898
sVinvestigations
p4393
I3401
sVarguing
p4394
I3971
sVdrudge
p4395
I7437
sVburn
p4396
I4629
sVconfrontation
p4397
I4352
sVgreenbelt
p4398
I7532
sVsuper
p4399
I1728
sVmagazine
p4400
I1196
sVafternoon
p4401
I1442
sVislands
p4402
I1750
sVautomatically
p4403
I4677
sVcarting
p4404
I7598
sVmanagers
p4405
I3003
sVformerly
p4406
I2795
sVreaping
p4407
I7158
sVlitmus
p4408
I7214
sVdown
p4409
I135
sVlies
p4410
I2178
sVscalded
p4411
I7744
sV1990s
p4412
I2099
sVunseal
p4413
I7773
sVinitial
p4414
I1733
sVeditor
p4415
I1662
sVfraction
p4416
I5721
sVbolivia
p4417
I4809
sVstarve
p4418
I7168
sVlowe
p4419
I6093
sVform
p4420
I674
sVlanding
p4421
I3011
sVford
p4422
I1842
sVfailure
p4423
I1805
sV225
p4424
I5226
sVsurrender
p4425
I4065
sVatrocities
p4426
I5315
sVfort
p4427
I1971
sVbuilds
p4428
I6132
sVstaged
p4429
I3654
sVtucson
p4430
I6431
sVstages
p4431
I3406
sVpropaganda
p4432
I4959
sVkaine
p4433
I7124
sVabusing
p4434
I6476
sVsticks
p4435
I5643
sVclassic
p4436
I2221
sVzambian
p4437
I6298
sVcovers
p4438
I2890
sVsale
p4439
I1499
sVanthrax
p4440
I5213
sVship
p4441
I1326
sVself-defence
p4442
I7648
sVmarking
p4443
I4409
sVauthoritative
p4444
I6830
sVgenerally
p4445
I1509
sVhanded
p4446
I2265
sVwarehouse
p4447
I5360
sVfaction
p4448
I4396
sVdies
p4449
I4176
sVfelt
p4450
I1306
sVfell
p4451
I538
sVreign
p4452
I4234
sVauthorities
p4453
I564
sVtransfers
p4454
I5587
sVweekend
p4455
I1142
sVdied
p4456
I429
sVderail
p4457
I6508
sVjones
p4458
I1122
sVoutskirts
p4459
I4925
sVassume
p4460
I4244
sVdaily
p4461
I765
sVpremiums
p4462
I5940
sVstripping
p4463
I6852
sVheir-apparent
p4464
I7819
sVprofits
p4465
I2088
sVshop
p4466
I2589
sVmanaged
p4467
I1680
sVskip
p4468
I5997
sVeldest
p4469
I5293
sVtulkarem
p4470
I6988
sVmanager
p4471
I849
sVmanages
p4472
I4633
sVskin
p4473
I3267
sVbomber
p4474
I3681
sVpremises
p4475
I5894
sVlauro
p4476
I7459
sVhijacked
p4477
I5931
sVjiji
p4478
I7092
sV21st
p4479
I3993
sVsuicide
p4480
I1461
sVdepend
p4481
I4472
sVtechnique
p4482
I3977
sVfather
p4483
I622
sViraqi
p4484
I701
sVfinally
p4485
I1195
sVpraised
p4486
I3048
sVpetersburg
p4487
I4233
sVmarks
p4488
I2380
sVsuffered
p4489
I1485
sVadviser
p4490
I2850
sVstring
p4491
I3224
sVbillionaire
p4492
I5781
sVlynch
p4493
I4038
sVadvised
p4494
I4145
sVword
p4495
I1343
sVtimor
p4496
I4447
sVgovernments
p4497
I1650
sVthree-day
p4498
I7316
sVdivorced
p4499
I5148
sVdid
p4500
I119
sVdie
p4501
I2190
sVproposals
p4502
I2665
sVdemocrat
p4503
I2386
sVtravels
p4504
I4775
sVdip
p4505
I5958
sVround
p4506
I467
sVattracting
p4507
I5563
sVolympic
p4508
I1026
sVtalked
p4509
I3121
sVdealing
p4510
I3007
sVforensics
p4511
I7107
sVbombardment
p4512
I5998
sVhospitalised
p4513
I6987
sVreznik
p4514
I7810
sVeating
p4515
I3718
sVtargets
p4516
I2444
sV6:10
p4517
I7704
sVafghanistan
p4518
I844
sVsoured
p4519
I6725
sVadds
p4520
I2010
sVfavour
p4521
I4713
sVsuspect
p4522
I2314
sValdouri
p4523
I7871
sVinternational
p4524
I146
sVfilled
p4525
I2470
sVtransportation
p4526
I2111
sVguardian
p4527
I4800
sVfrench
p4528
I346
sVcorporation
p4529
I2456
sVtvrdik
p4530
I7873
sVkilometers
p4531
I1302
sVwait
p4532
I2284
sVbox
p4533
I1832
sVboy
p4534
I1540
sVenvirons
p4535
I7177
sVmid-april
p4536
I7633
sVbattling
p4537
I4666
sVshift
p4538
I2881
sVexpulsion
p4539
I5828
sVconvoys
p4540
I6416
sVbok
p4541
I7111
sVsuggestion
p4542
I4929
sVhigh-tech
p4543
I7358
sVbob
p4544
I1769
sVraanan
p4545
I7303
sVeasyjet
p4546
I7334
sVelect
p4547
I3804
sVstatewide
p4548
I5400
sVmerely
p4549
I3728
sVverge
p4550
I5833
sVkleinwort
p4551
I7284
sVtransplant
p4552
I5863
sVeverybody
p4553
I2383
sVmelbourne-based
p4554
I7838
sVtroops
p4555
I398
sVariel
p4556
I4682
sVvisit
p4557
I526
sVfrance
p4558
I385
sVinsider
p4559
I5987
sVthru
p4560
I7009
sV2,000-pound
p4561
I7724
sV557
p4562
I7540
sVfaith
p4563
I2479
sVacceptable
p4564
I4648
sVmalay
p4565
I6522
sV550
p4566
I6117
sVdowntown
p4567
I2326
sVeffort
p4568
I944
sVcapturing
p4569
I5719
sVfly
p4570
I2194
sVtokyo
p4571
I1319
sVquoting
p4572
I5196
sVflu
p4573
I2434
sVsoul
p4574
I3504
sVpremarital
p4575
I7557
sV9th
p4576
I4950
sVgrowing
p4577
I964
sVmaking
p4578
I431
sVarrive
p4579
I3188
sVdeceased
p4580
I6039
sVclaim
p4581
I1484
sVcrazy
p4582
I4283
sVpredict
p4583
I4645
sVwinston
p4584
I5337
sVconfused
p4585
I4763
sVagent
p4586
I1859
sVsample
p4587
I4433
sVshorting
p4588
I7615
sVremanded
p4589
I7091
sVbattered
p4590
I5008
sVcouncil
p4591
I380
sVdennis
p4592
I3570
sVoslo
p4593
I4825
sVchemical
p4594
I2131
sVcontracts
p4595
I2469
sVsunday
p4596
I239
sVpure
p4597
I4371
sVmap
p4598
I3028
sVstaying
p4599
I3815
sVmay
p4600
I107
sVmax
p4601
I4049
sVmembership
p4602
I2547
sVjintao
p4603
I5737
sVfaisalabad
p4604
I7464
sVdesigned
p4605
I1158
sVdestructive
p4606
I6063
sVguys
p4607
I2124
sVgrow
p4608
I2116
sVmao
p4609
I5891
sVman
p4610
I298
sVlundberg
p4611
I7507
sVjohnson
p4612
I1286
sVmaybe
p4613
I1787
sVfluent
p4614
I6684
sVinhabitants
p4615
I3902
sVswitch
p4616
I3986
sVjail
p4617
I2129
sVblock
p4618
I1855
sVafrican
p4619
I676
sVhassan
p4620
I4236
sVtalk
p4621
I1046
sVshield
p4622
I4360
sVcanberra
p4623
I5852
sVfeb
p4624
I6590
sVgovernment-controlled
p4625
I7851
sVpointed
p4626
I2705
sVshaky
p4627
I5990
sVseizing
p4628
I6376
sVargues
p4629
I4595
sVstability
p4630
I2184
sVcuts
p4631
I1632
sVargued
p4632
I2228
sVpeterson
p4633
I5492
sVgroup
p4634
I129
sVmonitor
p4635
I3336
sVinteresting
p4636
I3384
sVundermined
p4637
I6160
sVyorkshire
p4638
I5242
sVjeeves
p4639
I7539
sVpolicy
p4640
I525
sVmail
p4641
I1298
sVmsnbc
p4642
I6706
sVmain
p4643
I442
sVtexas
p4644
I735
sVfinance
p4645
I1146
sVviews
p4646
I2154
sVenclave
p4647
I5087
sVkiller
p4648
I3920
sVundisclosed
p4649
I5945
sVsooner
p4650
I5275
sVbeit
p4651
I6393
sVboats
p4652
I3387
sVaspirations
p4653
I6150
sVkilled
p4654
I255
sVdevelopments
p4655
I3210
sVattorneys
p4656
I3777
sVresignation
p4657
I2950
sVbolshevik
p4658
I7055
sVrock
p4659
I1104
sVgirl
p4660
I1667
sVmorning
p4661
I755
sVcanada
p4662
I763
sVliving
p4663
I746
sVjackson
p4664
I1672
sV3rd
p4665
I3422
sVoperates
p4666
I3448
sVstupid
p4667
I5624
sVpeshmerga
p4668
I7591
sVemerged
p4669
I2809
sVdutch
p4670
I1616
sVcorrect
p4671
I3348
sVearlier
p4672
I348
sVmonster
p4673
I5115
sVbrooks
p4674
I4709
sVspies
p4675
I6240
sVcalifornia
p4676
I621
sVklinghoffer
p4677
I7719
sVcough
p4678
I6822
sVadvance
p4679
I1927
sVlanguage
p4680
I1005
sVministry
p4681
I534
sVwanita
p4682
I7821
sVthing
p4683
I856
sVthink
p4684
I268
sVfrequent
p4685
I3427
sVfirst
p4686
I58
sVmalkin
p4687
I7304
sVfleeing
p4688
I4762
sVquestion
p4689
I971
sVrachel
p4690
I5525
sVamericans
p4691
I811
sVlong
p4692
I173
sVsuspended
p4693
I2105
sVcarry
p4694
I1549
sVsounds
p4695
I3434
sVlittle
p4696
I331
sVex-wife
p4697
I7389
sVanyone
p4698
I1481
sVplains
p4699
I5197
sValfred
p4700
I4616
sVparticipated
p4701
I3130
sVspeaking
p4702
I1310
sVbloodshed
p4703
I5432
sVeyes
p4704
I2095
sVallegedly
p4705
I2406
sVmemo
p4706
I5282
sVhillary
p4707
I3724
sVinterdict
p4708
I7577
sV50000
p4709
I7911
sVgreenberg
p4710
I6532
sV11
p4711
I416
sV10
p4712
I206
sV13
p4713
I667
sV12
p4714
I419
sV15
p4715
I402
sV14
p4716
I648
sVsailing
p4717
I4986
sV16
p4718
I687
sV19
p4719
I884
sV18
p4720
I517
sVprotected
p4721
I3308
sVwere
p4722
I35
sVgathering
p4723
I3046
sVanti-terror
p4724
I7900
sVtopics
p4725
I4474
sVoccupies
p4726
I6474
sVdefecting
p4727
I7320
sVmarijuana
p4728
I4859
sVvoices
p4729
I4432
sVwinding
p4730
I6279
sVconspiracy
p4731
I3785
sVnaxakis
p4732
I7980
sVtop-level
p4733
I7465
sVlozada
p4734
I7240
sVnazi
p4735
I3332
sVairlifts
p4736
I7669
sVkevin
p4737
I2581
sVefficient
p4738
I3875
sVshocked
p4739
I4313
sVendangered
p4740
I4662
sVsquad
p4741
I2161
sVinterior
p4742
I1704
sVperformance
p4743
I864
sVbeirut
p4744
I4276
sVregistered
p4745
I2484
sVchannel
p4746
I1559
sVforward-thinking
p4747
I7886
sV200
p4748
I1234
sV202
p4749
I6554
sVpain
p4750
I2620
sVnorman
p4751
I3957
sVnormal
p4752
I1863
sVtrack
p4753
I984
sVpaid
p4754
I1103
sVassault
p4755
I2491
sVbarrage
p4756
I6250
sVcomplaints
p4757
I3143
sVcuban
p4758
I2981
sVespecially
p4759
I842
sVsurprising
p4760
I4395
sVrashid
p4761
I6059
sVlaghi
p4762
I7796
sVlarry
p4763
I3275
sValarming
p4764
I6469
sVprecise
p4765
I5093
sVrating
p4766
I2860
sVshot
p4767
I628
sVshow
p4768
I272
sVfiled
p4769
I1397
sVsites
p4770
I1494
sVrep.
p4771
I2526
sVjordanian
p4772
I4439
sVcorner
p4773
I2392
sVevaluations
p4774
I6924
sVdick
p4775
I3487
sVstorms
p4776
I4855
sVbehind
p4777
I557
sVoutpost
p4778
I6323
sVblack
p4779
I519
sVdeployed
p4780
I3030
sVjaroslav
p4781
I7213
sVtreasury
p4782
I2236
sVenthusiasm
p4783
I4956
sVclose-quarters
p4784
I7931
sVranking
p4785
I2856
sVget
p4786
I169
sVhostage
p4787
I3372
sVdesignated
p4788
I3225
sVemployers
p4789
I3698
sVhailed
p4790
I4495
sVnearly
p4791
I569
sVsecondary
p4792
I2957
sVbusiest
p4793
I6237
sVangeles-area
p4794
I7946
sVmalaysian
p4795
I3411
sVyield
p4796
I2951
sVsummary
p4797
I3647
sVmiles
p4798
I670
sVmogadishu
p4799
I5347
sVaudited
p4800
I7163
sVdeclared
p4801
I1489
sVseat
p4802
I1562
sVrelative
p4803
I3405
sVj.
p4804
I1954
sVsean
p4805
I4247
sVeliminating
p4806
I5332
sVseal
p4807
I4438
sVwonder
p4808
I3565
sVindicted
p4809
I4338
sVrigidly
p4810
I7463
sVmachetes
p4811
I7099
sVlabel
p4812
I2703
sVwhereabouts
p4813
I6053
sVenough
p4814
I571
sVreading
p4815
I2042
sVchecks
p4816
I4035
sVinfrastructure
p4817
I2660
sVaugust
p4818
I508
sVparent
p4819
I3246
sVlegitimacy
p4820
I5825
sVtur
p4821
I7007
sVkilling
p4822
I1001
sVsandstorms
p4823
I7530
sVjo
p4824
I5880
sVchildbirth
p4825
I6996
sVborneo
p4826
I6745
sVaccording
p4827
I200
sVblasts
p4828
I4557
sVtour
p4829
I715
sVspare
p4830
I4659
sVall-day
p4831
I7740
sVamong
p4832
I243
sVcancer
p4833
I1574
sV50,000
p4834
I3490
sVcustody
p4835
I3045
sVconsidering
p4836
I2346
sVarts
p4837
I1610
sVdallaire
p4838
I7621
sVmarc
p4839
I4067
sVbarry
p4840
I3517
sVbejing
p4841
I7806
sVcrossfire
p4842
I6899
sVmark
p4843
I786
sVmart
p4844
I4642
sVmars
p4845
I4607
sVborders
p4846
I2689
sVmary
p4847
I1854
sVus-led
p4848
I7818
sVshopping
p4849
I2707
sVoffered
p4850
I1080
sVwires
p4851
I6400
sVplaning
p4852
I7685
sVdramatic
p4853
I2980
sVwake
p4854
I2734
sVdeclaration
p4855
I3129
sVthose
p4856
I155
sVsound
p4857
I1446
sVklaus
p4858
I5864
sVdivisive
p4859
I6524
sVn't
p4860
I70
sVwarning
p4861
I1865
sVongoing
p4862
I2844
sVresidence
p4863
I3183
sVinvestigating
p4864
I3027
sVmargin
p4865
I3233
sVeventually
p4866
I1148
sVsincere
p4867
I6366
sVstrait
p4868
I3861
sVsleeping
p4869
I4873
sVmiddle
p4870
I690
sVsudden
p4871
I4041
sVtraffickers
p4872
I5789
sVeveryday
p4873
I5126
sVbags
p4874
I4061
sVdifferent
p4875
I492
sVharsh
p4876
I4197
sVdoctor
p4877
I1956
sVpay
p4878
I635
sVsame
p4879
I215
sVwizards
p4880
I6368
sVspeech
p4881
I1255
sVarguments
p4882
I3968
sVstepped
p4883
I2937
sVextended
p4884
I1960
sVassist
p4885
I3564
sVcompanion
p4886
I5202
sVrunning
p4887
I784
sVdriven
p4888
I2615
sVmotorcade
p4889
I6737
sVtotally
p4890
I3616
sVdrain
p4891
I5743
sVlargely
p4892
I1520
sViraqis
p4893
I2975
sVroughly
p4894
I2848
sVaccountable
p4895
I5858
sVsolve
p4896
I3663
sVconvened
p4897
I5935
sVcameramen
p4898
I7269
sVconsisted
p4899
I4350
sVgates
p4900
I2954
sVlumbered
p4901
I7675
sVoverseeing
p4902
I5598
sVmoney
p4903
I306
sVadjustments
p4904
I6159
sVtoymaker
p4905
I7612
sVgwan
p4906
I7448
sVdemocratically
p4907
I6649
sVmcdonald
p4908
I4401
sVrental
p4909
I5277
sV4
p4910
I407
sVself-promoting
p4911
I7989
sVheavier
p4912
I6267
sVcareers
p4913
I5120
sVgrip
p4914
I5100
sVschwarzenegger
p4915
I4805
sVjaka
p4916
I7793
sVadmitting
p4917
I6083
sVmom
p4918
I4533
sVmob
p4919
I5159
sVgrim
p4920
I5623
sVchristine
p4921
I5670
sVhomosexuality
p4922
I6176
sVserves
p4923
I2572
sV've
p4924
I460
sVfacing
p4925
I1968
sVreimbursing
p4926
I7643
sVnose
p4927
I4470
sVrobbery
p4928
I5025
sVserved
p4929
I714
sVvoluntarily
p4930
I5733
sVjews
p4931
I2472
sVwitchcraft
p4932
I6967
sVimprisonment
p4933
I5016
sVspecified
p4934
I5765
sVorganizing
p4935
I4377
sVaccomplice
p4936
I6815
sVgross
p4937
I2902
sVellis
p4938
I5133
sVconfirm
p4939
I3412
sVsudan
p4940
I2403
sVfront-page
p4941
I7748
sVcritical
p4942
I1556
sVexpressing
p4943
I4974
sVmoderate
p4944
I2863
sVknife
p4945
I5011
sVdimensionally
p4946
I7834
sVairways
p4947
I4077
sVseconds
p4948
I1611
sVwarplane
p4949
I7309
sVunusual
p4950
I2854
sVnotably
p4951
I3200
sVbroken
p4952
I2155
sVvisits
p4953
I2869
sVdrums
p4954
I5042
sVstrangled
p4955
I6897
sVmanufacturer
p4956
I3987
sVhelping
p4957
I1987
sVson-in-law
p4958
I7094
sVstations
p4959
I1651
sVroar
p4960
I6681
sVisland
p4961
I579
sVviolence
p4962
I705
sVairline
p4963
I2145
sVpockets
p4964
I5662
sVprovisional
p4965
I4999
sVroad
p4966
I581
sVorganizers
p4967
I3655
sVdecimated
p4968
I6976
sVwhites
p4969
I4951
sVspreading
p4970
I4500
sVblessed
p4971
I5928
sVvacation
p4972
I4153
sVstrip
p4973
I2005
sVjerusalem
p4974
I1898
sVpharmaceutical
p4975
I4794
sVdowned
p4976
I6044
sVgalvanize
p4977
I7380
sVtycoon
p4978
I6148
sVdeepened
p4979
I6669
sVstrikes
p4980
I2585
sVsophisticated
p4981
I4469
sVdownstairs
p4982
I6951
sVarranged
p4983
I3922
sVco-chief
p4984
I7934
sVbenton
p4985
I6891
sVdeadlock
p4986
I5663
sVaffection
p4987
I6449
sVleaked
p4988
I5707
sVcitation
p4989
I6413
sVdeep
p4990
I1421
sVfellow
p4991
I1688
sVal-asad
p4992
I7968
sVexamine
p4993
I4532
sVfile
p4994
I2588
sVgirlfriend
p4995
I4641
sVdeterrent
p4996
I6614
sVsyrian
p4997
I2978
sVfilm
p4998
I317
sVagain
p4999
I376
sVistanbul
p5000
I4596
sVretiring
p5001
I4847
sVpersonnel
p5002
I1949
sVdrivers
p5003
I2748
sVfield
p5004
I603
sV4,000
p5005
I3946
sVstudents
p5006
I541
sVimportant
p5007
I479
sVtackle
p5008
I3568
sVdecorated
p5009
I5097
sVassets
p5010
I1888
sVtightened
p5011
I6029
sVkuwait
p5012
I2805
sVschrenko
p5013
I7887
sVstarting
p5014
I1154
sVrepresent
p5015
I2606
sVsuny
p5016
I7242
sVforget
p5017
I3675
sVfounder
p5018
I2458
sVsuburban
p5019
I4062
sVdollar
p5020
I669
sVfounded
p5021
I1259
sVsunk
p5022
I6033
sVbaath
p5023
I6460
sVtalks
p5024
I368
sVchildren
p5025
I270
sVreluctant
p5026
I4240
sVshattered
p5027
I5112
sVspillover
p5028
I7285
sVrwanda
p5029
I3674
sVcaptivity
p5030
I6210
sVenjoying
p5031
I5248
sVmandela
p5032
I4294
sVpremium
p5033
I4531
sVreturning
p5034
I2092
sVhewlett
p5035
I6208
sVfall
p5036
I794
sVwinning
p5037
I860
sVdifference
p5038
I2166
sVnorfolk
p5039
I5238
sVdictatorship
p5040
I5530
sVmothers
p5041
I4416
sVjudith
p5042
I6354
sVcelebrity
p5043
I4072
sVapplicable
p5044
I6632
sVsaudi
p5045
I1571
sVbiological
p5046
I3631
sVfirefight
p5047
I6773
sVneighborhood
p5048
I2230
sVairliners
p5049
I6827
sVzero
p5050
I3394
sVarizona
p5051
I2057
sVperspective
p5052
I4117
sVlawyer
p5053
I1342
sVfurther
p5054
I487
sVmaterial
p5055
I1266
sVabc
p5056
I2758
sVstood
p5057
I1970
sVabi
p5058
I7356
sVcoroner
p5059
I6596
sVabu
p5060
I2174
sVpublic
p5061
I198
sVmovement
p5062
I905
sVpromising
p5063
I3851
sVrangel
p5064
I6758
sVdisastrous
p5065
I5526
sVoperating
p5066
I1420
sVstipend
p5067
I7219
sVadmits
p5068
I4946
sV900
p5069
I4739
sVbible
p5070
I4235
sVprosecutors
p5071
I1674
sVstretching
p5072
I5889
sVrepaying
p5073
I7264
sVairport
p5074
I901
sVpublished
p5075
I725
sVnarrow
p5076
I3223
sVauthorize
p5077
I6500
sValexandria
p5078
I5790
sVbuses
p5079
I3743
sVafrica
p5080
I630
sVestablish
p5081
I2404
sVlegislator
p5082
I5260
sVshareholders
p5083
I2887
sVeye
p5084
I1964
sVlong-held
p5085
I7794
sVwiped
p5086
I5729
sVdestination
p5087
I4243
sVtwo
p5088
I55
sVgovernance
p5089
I4820
sVdamaged
p5090
I2494
sVcomparing
p5091
I5996
sVlander
p5092
I7036
sVleonard
p5093
I4804
sVlanded
p5094
I3253
sVcontrolling
p5095
I4664
sVparticular
p5096
I1596
sVtown
p5097
I326
sVshoichiro
p5098
I7811
sVnone
p5099
I1994
sVvladimir
p5100
I3335
sVstrain
p5101
I4114
sVrecall
p5102
I3825
sVdes
p5103
I4023
sVsucks
p5104
I7339
sVroosevelt
p5105
I4828
sVguards
p5106
I2808
sVunindicted
p5107
I7707
sVremain
p5108
I921
sVpressing
p5109
I4317
sVabandon
p5110
I4511
sVstrategies
p5111
I4562
sVdee
p5112
I4362
sVstubborn
p5113
I6694
sVbravely
p5114
I7180
sVonslaught
p5115
I6577
sVshare
p5116
I588
sVcollision
p5117
I4903
sVminimum
p5118
I2919
sVnumbers
p5119
I1283
sVpurchased
p5120
I2819
sVsharp
p5121
I2442
sV!
p5122
I792
sVneeds
p5123
I1044
sVawkward
p5124
I6249
sVstig
p5125
I7337
sVplans
p5126
I555
sVacts
p5127
I2340
sVhopeless
p5128
I6916
sVredwood
p5129
I6869
sVuprising
p5130
I4059
sVadvice
p5131
I2872
sVblood
p5132
I1400
sVfaculty
p5133
I3575
sVresponse
p5134
I1120
sVbrady
p5135
I5239
sVcrowded
p5136
I4344
sVcoat
p5137
I4784
sVconglomerates
p5138
I6912
sVdeserted
p5139
I6142
sVresponsibility
p5140
I1617
sVpleasure
p5141
I5214
sVplaying
p5142
I688
sVinfant
p5143
I5373
sVrifles
p5144
I4849
sVfinalized
p5145
I6427
sVradar
p5146
I4167
sVappeals
p5147
I2640
sVthrough
p5148
I131
sVexistence
p5149
I3248
sV24
p5150
I782
sV25
p5151
I575
sV26
p5152
I1045
sV27
p5153
I1063
sV20
p5154
I322
sV21
p5155
I928
sV22
p5156
I924
sV23
p5157
I995
sV28
p5158
I1055
sV29
p5159
I1227
sVlate
p5160
I286
sVreuters
p5161
I6105
sVcowrote
p5162
I7872
sVpad
p5163
I5922
sVo'brien
p5164
I4995
sVhurting
p5165
I5877
sVsomeone
p5166
I1280
sVseeking
p5167
I1271
sVmales
p5168
I2885
sVwalls
p5169
I2990
sVcompound
p5170
I3376
sViranians
p5171
I5524
sVviewers
p5172
I3370
sVmystery
p5173
I4162
sVrobbie
p5174
I6317
sVpregnant
p5175
I4245
sVmicro
p5176
I6363
sVpositions
p5177
I1874
sVports
p5178
I4311
sVforthright
p5179
I7249
sVharm
p5180
I3843
sVeveryone
p5181
I1356
sVcallum
p5182
I7523
sVhouse
p5183
I166
sVenergy
p5184
I627
sVhard
p5185
I598
sVidea
p5186
I1126
sVoil
p5187
I314
sVthick
p5188
I3948
sVstands
p5189
I2374
sVperry
p5190
I3687
sVfunding
p5191
I2113
sVdallek
p5192
I7758
sVcrowing
p5193
I7634
sVparticipants
p5194
I2964
sVlongtime
p5195
I3396
sVsloan
p5196
I6692
sVdisobedience
p5197
I6992
sVbankrupcy
p5198
I7961
sVlawrence
p5199
I3670
sVbacker
p5200
I6845
sVmikhail
p5201
I5218
sVdifficulty
p5202
I4181
sVdisneyland
p5203
I6709
sVmembers
p5204
I234
sVbacked
p5205
I1745
sVbeginning
p5206
I1053
sVyasser
p5207
I3912
sVbenefits
p5208
I1817
sVprophet
p5209
I5585
sVpilots
p5210
I3191
sVtayyip
p5211
I6728
sVmistakenly
p5212
I6517
sVnetted
p5213
I6212
sVwaged
p5214
I6165
sVdone
p5215
I741
sVyazid
p5216
I7413
sVdong
p5217
I5899
sVwages
p5218
I4031
sVdivorce
p5219
I4250
sVleast
p5220
I336
sVmilitant
p5221
I2537
sVassumption
p5222
I5720
sVstatement
p5223
I372
sVcompromise
p5224
I3136
sVmuscles
p5225
I6021
sVpark
p5226
I618
sVpart
p5227
I153
sVparr
p5228
I7271
sVdoctors
p5229
I1684
sVbelieve
p5230
I723
sVpeaked
p5231
I4875
sVb
p5232
I1493
sVgotten
p5233
I4000
sVyouth
p5234
I1781
sVcontrary
p5235
I4773
sVsupposed
p5236
I2575
sVamazes
p5237
I7639
sVtreated
p5238
I2478
sVinteractive
p5239
I4968
sVfirst-round
p5240
I7415
sVplead
p5241
I6442
sVages
p5242
I3300
sVaged
p5243
I3047
sVorders
p5244
I1847
sVditched
p5245
I7255
sVmountain
p5246
I1543
sVbuilt
p5247
I666
sVdepending
p5248
I3605
sVgorbachev
p5249
I6586
sVk.
p5250
I4598
sVmajority
p5251
I882
sVbuild
p5252
I1157
sVprovince
p5253
I617
sVqurei
p5254
I7169
sVsmall-arms
p5255
I7844
sVcarolina
p5256
I1731
sVtaubman
p5257
I7469
sVmost
p5258
I96
sVsignificant
p5259
I1175
sVservices
p5260
I520
sVextremely
p5261
I2473
sVconstructed
p5262
I3243
sVhumanitarian
p5263
I2482
sVcharitable
p5264
I5537
sVstandoff
p5265
I4697
sVsector
p5266
I1248
sVthomas
p5267
I1127
sVparticularly
p5268
I1081
sVrebels
p5269
I991
sVscattered
p5270
I4560
sVbusinesses
p5271
I1526
sVcarefully
p5272
I3849
sVfine
p5273
I1619
sVfind
p5274
I591
sVcell
p5275
I1985
sVgiant
p5276
I1670
sVmerger
p5277
I2826
sVnervous
p5278
I4057
sVdistributed
p5279
I3154
sVwaiting
p5280
I1981
sVfreedoms
p5281
I5994
sVgenerators
p5282
I6320
sV8
p5283
I644
sVmerged
p5284
I4268
sVpermission
p5285
I3547
sVcholera
p5286
I6230
sVexpress
p5287
I2411
sVcheaper
p5288
I4609
sVngor
p5289
I7747
sVtheft
p5290
I4742
sVqasr
p5291
I7198
sVmerchandise
p5292
I5581
sVresolve
p5293
I2834
sVremove
p5294
I2717
sVcommon
p5295
I845
sVgospel
p5296
I5205
sVtoefting
p5297
I7852
sVopposing
p5298
I4522
sVscenes
p5299
I3032
sVlion
p5300
I4795
sVindividual
p5301
I1375
sVleslie
p5302
I5600
sVsurrendered
p5303
I5071
sV11th
p5304
I3452
sVforthcoming
p5305
I5652
sVfeared
p5306
I3499
sVexpert
p5307
I2648
sVvisiting
p5308
I2275
sVelectoral
p5309
I2548
sVfans
p5310
I1161
sVburned
p5311
I3417
sVdonate
p5312
I6008
sVtransfered
p5313
I7668
sVresponses
p5314
I5309
sVnashville
p5315
I4761
sVaircraft
p5316
I1082
sVguantanamo
p5317
I4255
sVfull-time
p5318
I5791
sVsultan
p5319
I5031
sVannual
p5320
I917
sVforeign
p5321
I205
sVstone-throwing
p5322
I7963
sVanti-war
p5323
I7322
sVpoint
p5324
I387
sVsimple
p5325
I2012
sVtennessee
p5326
I3077
sVsimply
p5327
I1423
sVdeacons
p5328
I7272
sVunsuccessful
p5329
I4792
sVasserted
p5330
I5416
sVthroughout
p5331
I959
sVexpensive
p5332
I2634
sVraise
p5333
I1417
sVcreate
p5334
I1176
sVrivals
p5335
I2711
sVsecret
p5336
I1692
sVdropping
p5337
I3983
sVireland
p5338
I1284
sVlaos
p5339
I5479
sVmeeting
p5340
I284
sVnukes
p5341
I7390
sVgay
p5342
I2249
sVassorted
p5343
I6907
sVhonorary
p5344
I4706
sVgas
p5345
I835
sV16-year-old
p5346
I7559
sVgap
p5347
I2918
sVunderstand
p5348
I1812
sVvang
p5349
I7280
sVprices
p5350
I466
sV225-kilogram
p5351
I7836
sVsuha
p5352
I7606
sVpolitician
p5353
I2566
sVsolid
p5354
I2735
sVbill
p5355
I478
sVholocaust
p5356
I4252
sVreplaced
p5357
I1607
sVfun
p5358
I2623
sVportugal
p5359
I2706
sVcentury
p5360
I584
sVcents
p5361
I1072
sVencountered
p5362
I5206
sVgunned
p5363
I6304
sVabducting
p5364
I7181
sVitself
p5365
I979
sVitaly
p5366
I910
sVevading
p5367
I7093
sVvaclav
p5368
I6888
sVcopying
p5369
I6817
sVdevelopment
p5370
I378
sVdhabi
p5371
I6365
sVchalabi
p5372
I6816
sVpraising
p5373
I6373
sVkeys
p5374
I5117
sVassignment
p5375
I5258
sVyesterday
p5376
I2590
sVmoment
p5377
I1534
sVpurpose
p5378
I2549
sVrealm
p5379
I6071
sVconsulted
p5380
I6173
sVtask
p5381
I2030
sVspent
p5382
I942
sVflags
p5383
I4143
sVwithdraw
p5384
I3270
sVlandmark
p5385
I3877
sVentry
p5386
I2505
sVsignalled
p5387
I6806
sVspend
p5388
I1909
sVprevention
p5389
I3779
sVone-year
p5390
I6863
sVrantissi
p5391
I7543
sVlds
p5392
I6892
sVshape
p5393
I2719
sVopenly
p5394
I4487
sValternative
p5395
I2297
sVinjuries
p5396
I1965
sVletting
p5397
I4745
sVimpetus
p5398
I6602
sVcut
p5399
I604
sVcup
p5400
I364
sVdeputy
p5401
I1027
sVsource
p5402
I1140
sVdeliberately
p5403
I5173
sVadministrative
p5404
I2185
sVexcited
p5405
I4428
sVhates
p5406
I6844
sVbin
p5407
I2141
sV700
p5408
I3678
sVlooming
p5409
I5971
sVbig
p5410
I363
sVbid
p5411
I1163
sVforeigners
p5412
I3341
sVbit
p5413
I1528
sVdegenerated
p5414
I7195
sVfollows
p5415
I1785
sVindication
p5416
I4177
sVfoolish
p5417
I6704
sVoften
p5418
I454
sVcollectors
p5419
I5900
sVdiocese
p5420
I4457
sVabsolutely
p5421
I3353
sVextremism
p5422
I6116
sVback
p5423
I137
sVdelegation
p5424
I2231
sVexamples
p5425
I3450
sVmirror
p5426
I4707
sV4200
p5427
I7649
sVlightning
p5428
I4604
sVourselves
p5429
I3998
sVscale
p5430
I1990
sVdecision
p5431
I449
sVinfliction
p5432
I7672
sVper
p5433
I530
sVconnecting
p5434
I4953
sVeliminate
p5435
I3913
sVunprovoked
p5436
I7275
sVinvade
p5437
I6468
sVeither
p5438
I880
sVcameraman
p5439
I6739
sVpatient
p5440
I2857
sV300
p5441
I1762
sVcontinuing
p5442
I2108
sVuse
p5443
I233
sVpt-109
p5444
I7898
sVchanting
p5445
I6086
sVhostages
p5446
I3388
sVfrom
p5447
I25
sVhawkish
p5448
I6832
sVgoods
p5449
I1841
sVusa
p5450
I2225
sVbakar
p5451
I7104
sVmrs.
p5452
I2810
sVbeans
p5453
I5425
sVconsequently
p5454
I5686
sVretailer
p5455
I5095
sVinvading
p5456
I6499
sVframed
p5457
I6315
sVneutrality
p5458
I6699
sVtharthar
p5459
I7832
sVlesson
p5460
I4752
sV1/2-year
p5461
I7973
sVbankruptcy
p5462
I2947
sVjockey
p5463
I5956
sVpharmaceuticals
p5464
I6372
sVinfected
p5465
I3749
sVforward
p5466
I966
sVkeating
p5467
I6592
sVopponent
p5468
I3187
sVpounded
p5469
I6465
sVgeorgia-based
p5470
I7940
sVimmigration
p5471
I2096
sVhoped
p5472
I2268
sVboys
p5473
I1991
sVhopes
p5474
I1311
sVdirected
p5475
I1606
sVplanet
p5476
I3443
sV're
p5477
I266
sVexploration
p5478
I4331
sVplanes
p5479
I2531
sVviacom
p5480
I6542
sVautonomous
p5481
I3956
sVcheeks
p5482
I6939
sVsort
p5483
I2390
sVconstant
p5484
I3508
sVflow
p5485
I2683
sVsingle
p5486
I587
sVcure
p5487
I5324
sVcurb
p5488
I4423
sVorganizational
p5489
I6335
sVcafe
p5490
I4921
sVdenying
p5491
I5361
sV%
p5492
I261
sVsemiautomatic
p5493
I7215
sVsevan
p5494
I7371
sVassassinate
p5495
I6629
sVaccidental
p5496
I6342
sVheatwave
p5497
I7451
sVprepared
p5498
I1706
sVoil-rich
p5499
I7858
sVlent
p5500
I6265
sVdesert
p5501
I3207
sVkwacha
p5502
I7346
sVrallied
p5503
I4204
sVoverlooking
p5504
I5876
sVvehicles
p5505
I1563
sVbankers
p5506
I4653
sVoppress
p5507
I7607
sV2002
p5508
I798
sV2003
p5509
I770
sV2000
p5510
I656
sV2001
p5511
I766
sVpresenting
p5512
I5334
sV2004
p5513
I699
sVrallies
p5514
I4643
sVfailures
p5515
I5176
sV2008
p5516
I580
sV2009
p5517
I694
sVnoon
p5518
I4631
sVminors
p5519
I6011
sV15,000
p5520
I4332
sVgraves
p5521
I5024
sVcontacted
p5522
I4453
sVvietnamese
p5523
I3727
sVlasers
p5524
I6975
sVintensive
p5525
I4630
sViskandar
p5526
I7542
sVhelps
p5527
I3164
sVmaryland
p5528
I3106
sVfatal
p5529
I4269
sVfatah
p5530
I3858
sVankara
p5531
I4910
sVsoyuz
p5532
I6772
sVputting
p5533
I2071
sVarrange
p5534
I5667
sVseverely
p5535
I4198
sVshock
p5536
I3482
sVceasefire
p5537
I3911
sVbleeding
p5538
I5856
sVfirst-degree
p5539
I7716
sVdemonstrations
p5540
I3733
sVpkk
p5541
I5422
sVcopenhagen
p5542
I4700
sVrivera
p5543
I5801
sVedison
p5544
I6292
sVpittance
p5545
I7563
sVchicago
p5546
I1114
sVgiving
p5547
I1193
sVassisted
p5548
I4661
sVharrods
p5549
I7441
sVaccess
p5550
I1089
sVcondominium
p5551
I6814
sVbody
p5552
I710
sVjustification
p5553
I6390
sV50th
p5554
I5270
sVtransporting
p5555
I6397
sVbroker
p5556
I4693
sVobjects
p5557
I3699
sVothers
p5558
I421
sVluis
p5559
I3539
sVsafer
p5560
I5229
sVsafes
p5561
I7657
sVirritating
p5562
I7125
sVextreme
p5563
I3269
sV39
p5564
I2987
sV38
p5565
I2666
sVtalent
p5566
I3050
sV33
p5567
I2373
sV32
p5568
I2091
sV31
p5569
I1210
sV30
p5570
I405
sV37
p5571
I2691
sV36
p5572
I2409
sV35
p5573
I1603
sV34
p5574
I2519
sVprincipally
p5575
I6645
sVclimb
p5576
I4353
sVhonor
p5577
I2213
sVlooted
p5578
I6309
sVnamed
p5579
I560
sVprivate
p5580
I663
sVegress
p5581
I7752
sVprivately
p5582
I4070
sVscandal
p5583
I2451
sVresolutions
p5584
I4729
sVgateway
p5585
I5843
sVchi
p5586
I4948
sVferris
p5587
I6925
sVnobel
p5588
I3689
sVthemselves
p5589
I976
sVdefendant
p5590
I4768
sVupcoming
p5591
I3364
sVairlifted
p5592
I6977
sVtrail
p5593
I3067
sVtrain
p5594
I1413
sVprizes
p5595
I5478
sVarranging
p5596
I6578
sVwhatsoever
p5597
I6561
sVhints
p5598
I6378
sVaccount
p5599
I1468
sVtunnel
p5600
I3711
sVobvious
p5601
I3637
sVremission
p5602
I7258
sVindustrial
p5603
I1235
sVclosing
p5604
I2153
sVdidnt
p5605
I7754
sVconfidants
p5606
I7548
sVkhakamada
p5607
I7779
sVreserved
p5608
I4779
sVe.g.
p5609
I4191
sVinfantry
p5610
I3428
sVeffectively
p5611
I3036
sVreserves
p5612
I2929
sVbones
p5613
I4672
sVcontempt
p5614
I6239
sVnative
p5615
I1608
sVdaring
p5616
I6459
sVdemocracy
p5617
I1456
sVholds
p5618
I1920
sVhampshire
p5619
I3479
sVregions
p5620
I2073
sVresponsibilities
p5621
I4639
sVwinners
p5622
I2654
sVafp
p5623
I1151
sVstock
p5624
I450
sVprofile
p5625
I2774
sVname-calling
p5626
I7947
sVbuildings
p5627
I1432
sVbagdad
p5628
I7690
sVcaliph
p5629
I7117
sVbombers
p5630
I4006
sVchasing
p5631
I5461
sVbind
p5632
I6642
sVlines
p5633
I1290
sVlikud
p5634
I5420
sVfurious
p5635
I5671
sVsubsequently
p5636
I2779
sVlined
p5637
I4397
sVinstitutional
p5638
I4493
sVwedding
p5639
I3585
sVdisarm
p5640
I5493
sVshreds
p5641
I7435
sVbunch
p5642
I5050
sVindustries
p5643
I2396
sVbridges
p5644
I4261
sVnegotiated
p5645
I4414
sVcochabamba
p5646
I7535
sVla
p5647
I1020
sVlampposts
p5648
I7673
sVli
p5649
I2471
sVage
p5650
I462
sVwilling
p5651
I2060
sVcriminal
p5652
I1450
sVextradition
p5653
I4612
sVdad
p5654
I4473
sVgreater
p5655
I1365
sVdam
p5656
I3807
sVdan
p5657
I2712
sVmention
p5658
I3289
sVcutting
p5659
I2375
sVcourtroom
p5660
I4862
sVinsisting
p5661
I5043
sVday
p5662
I122
sVfebruary
p5663
I610
sVairports
p5664
I3947
sVestranged
p5665
I6653
sVwarned
p5666
I1178
sVidentified
p5667
I1675
sVmemoir
p5668
I5836
sVdisregard
p5669
I6683
sVexperienced
p5670
I2917
sVwarner
p5671
I2920
sV3,000
p5672
I3039
sVbelgrade
p5673
I3414
sVtension
p5674
I3592
sVapologize
p5675
I5979
sVsexual
p5676
I2072
sVmatt
p5677
I3416
sVdefend
p5678
I2861
sVfacto
p5679
I5580
sVarkansas
p5680
I3864
sVpostpone
p5681
I6073
sVannounced
p5682
I455
sV587
p5683
I7425
sVapproached
p5684
I3889
sVfrank
p5685
I1945
sVpayroll
p5686
I5447
sVclarify
p5687
I6164
sVapproaches
p5688
I4601
sVlikelihood
p5689
I5735
sVafterward
p5690
I4443
sVallies
p5691
I2043
sVrumbled
p5692
I7170
sVmortar
p5693
I4822
sVhinting
p5694
I6960
sVallied
p5695
I3320
sVdaubed
p5696
I7656
sVsouth
p5697
I139
sVscalding
p5698
I7599
sV2,000
p5699
I2721
sVreaches
p5700
I4202
sVstrategic
p5701
I2234
sVfranks
p5702
I6502
sVimprovements
p5703
I4227
sVreached
p5704
I742
sVocalan
p5705
I6622
sVwarships
p5706
I6061
sVancient
p5707
I2192
sVchased
p5708
I5967
sVpalestine
p5709
I4224
sVpakistani
p5710
I2163
sVcompleted
p5711
I1277
sVnobody
p5712
I2903
sVenvironmental
p5713
I1621
sVdiscretionary
p5714
I6947
sVloved
p5715
I3478
sVshrapnel
p5716
I6678
sVcompensation
p5717
I3072
sVvisited
p5718
I1999
sVprovoke
p5719
I6440
sVrecuse
p5720
I7558
sVhagel
p5721
I7086
sVcomfortable
p5722
I3407
sVunlikely
p5723
I2692
sVhave
p5724
I33
sVsporadic
p5725
I6125
sVthroat
p5726
I5651
sVapparently
p5727
I1802
sVu.s.-based
p5728
I6574
sVdallas
p5729
I2463
sVdavies
p5730
I5222
sVincentive
p5731
I5455
sVmontgomery
p5732
I4819
sVconcerns
p5733
I1246
sVkaplan
p5734
I6548
sVprovoked
p5735
I5759
sVunless
p5736
I2001
sVeight
p5737
I500
sVpreliminary
p5738
I3110
sVprisoner
p5739
I3991
sVpayment
p5740
I3468
sVgather
p5741
I4347
sVrequest
p5742
I1757
sVdisease
p5743
I1251
sV1,000
p5744
I1780
sVdenouncing
p5745
I6601
sVartificially
p5746
I6776
sVnormally
p5747
I3068
sVsupported
p5748
I1716
sVtearful
p5749
I6966
sVstaff
p5750
I805
sVgrabbed
p5751
I4961
sVknowledge
p5752
I2298
sVendangers
p5753
I7412
sVbernard
p5754
I3963
sVcommunist
p5755
I1441
sVregularly
p5756
I3044
sVhijacking
p5757
I6565
sVbeat
p5758
I936
sVbear
p5759
I2731
sVareas
p5760
I612
sVorgan
p5761
I4716
sVcalling
p5762
I1463
sVshelling
p5763
I5560
sVincluding
p5764
I144
sVfixed
p5765
I3015
sVpertains
p5766
I7553
sVmadam
p5767
I7222
sVnational
p5768
I121
sVshowdown
p5769
I5302
sVaccord
p5770
I2496
sVintensity
p5771
I4939
sVgreece
p5772
I1979
sVturks
p5773
I5512
sVattempting
p5774
I3975
sVclearing
p5775
I5027
sVlaureate
p5776
I6177
sVralph
p5777
I4585
sV36,000
p5778
I6906
sVdifficulties
p5779
I3612
sVcomapny
p5780
I7978
sVprogress
p5781
I1324
sVpachachi
p5782
I7398
sVmonarchy
p5783
I5592
sVdeliver
p5784
I3002
sVbyrds
p5785
I7515
sVimplementing
p5786
I5094
sVfreely
p5787
I5021
sVtaking
p5788
I578
sVequal
p5789
I2715
sVattributed
p5790
I3646
sVtrips
p5791
I3839
sVassure
p5792
I5557
sVbusted
p5793
I7019
sVswim
p5794
I5533
sVconquered
p5795
I6347
sVpassing
p5796
I2558
sVotherwise
p5797
I2511
sVcomment
p5798
I1282
sVambushed
p5799
I6408
sVdisarmament
p5800
I4460
sVlaugh
p5801
I5041
sVearning
p5802
I4203
sVad
p5803
I2664
sVpouring
p5804
I6253
sVtremendous
p5805
I4490
sVcopies
p5806
I3147
sVnewscast
p5807
I6872
sVcertain
p5808
I1159
sVproposal
p5809
I1407
sVramallah
p5810
I5037
sVdefine
p5811
I4908
sVcop
p5812
I5999
sV467
p5813
I7478
sVoverwhelmingly
p5814
I5462
sVfinished
p5815
I999
sVtense
p5816
I4582
sVgeneral
p5817
I216
sVvolunteer
p5818
I4164
sVlebanese
p5819
I2595
sVsplits
p5820
I6707
sVplain
p5821
I4192
sVappearance
p5822
I1788
sVvalue
p5823
I1125
sVstalin
p5824
I6182
sVensuing
p5825
I5989
sVcarved
p5826
I5459
sVoverflights
p5827
I7442
sValmost
p5828
I586
sVdissent
p5829
I5857
sVcaptors
p5830
I6523
sVrespected
p5831
I4144
sVarrangements
p5832
I4080
sVarabia
p5833
I2532
sVpartner
p5834
I1819
sVinspector
p5835
I4259
sV)
p5836
I24
sVcables
p5837
I6085
sVadministration
p5838
I464
sVslammed
p5839
I5063
sVcasualty
p5840
I5680
sVshuttle
p5841
I3653
sVmicrosoft
p5842
I1936
sVpowell
p5843
I2504
sVfrivolous
p5844
I7003
sVinjured
p5845
I978
sVtighten
p5846
I5826
sVkidnapping
p5847
I4275
sVcog
p5848
I7418
sVnovels
p5849
I4249
sVreporting
p5850
I2870
sVion
p5851
I6392
sVspitting
p5852
I6994
sVsisters
p5853
I3833
sVgiuliani
p5854
I4193
sVjudgment
p5855
I4017
sVscholars
p5856
I3793
sVkidnappings
p5857
I6089
sVcenter
p5858
I311
sVyates
p5859
I6589
sVweapon
p5860
I3410
sVantonio
p5861
I2670
sVthought
p5862
I791
sVsets
p5863
I2140
sVqawasmi
p5864
I7932
sVposition
p5865
I695
sVwreckage
p5866
I5608
sVsoviet
p5867
I1292
sVlatest
p5868
I969
sVnegotiation
p5869
I5502
sVstores
p5870
I1834
sVproximity
p5871
I5853
sVexecutive
p5872
I609
sVwagner
p5873
I5454
sVnicknamed
p5874
I5609
sVclinic
p5875
I4266
sVinterim
p5876
I3042
sVseats
p5877
I1514
sVprotecting
p5878
I3898
sVhazing
p5879
I7265
sVbremer
p5880
I6583
sVinvestor
p5881
I3599
sVadd
p5882
I1604
sVcitizen
p5883
I3340
sVhurry
p5884
I6488
sV284
p5885
I7146
sVought
p5886
I4902
sVgmt
p5887
I1686
sVresolved
p5888
I3871
sVchretien
p5889
I6501
sVjudiciary
p5890
I4289
sVdeployment
p5891
I3762
sVmahathir
p5892
I5199
sVdisplaced
p5893
I4101
sVlike
p5894
I117
sVsuccess
p5895
I1018
sVadmitted
p5896
I1958
sVjournalist
p5897
I2789
sVworks
p5898
I834
sVsoft
p5899
I2940
sVitalian
p5900
I1004
sVnfl
p5901
I2431
sValive
p5902
I2679
sVhair
p5903
I2709
sVwider
p5904
I4019
sVrecommendation
p5905
I4984
sVproper
p5906
I3209
sVnovelist
p5907
I5631
sVsupportive
p5908
I5810
sVhappens
p5909
I2962
sVpre-selected
p5910
I7890
sVhighlighting
p5911
I6497
sVcorpse
p5912
I6567
sVassuming
p5913
I5404
sVscrewed
p5914
I7143
sVchains
p5915
I5137
sVpepper
p5916
I4452
sVnoise
p5917
I4527
sVslight
p5918
I4466
sVstellar
p5919
I6540
sVlieutenant
p5920
I3237
sVhost
p5921
I1488
sValthough
p5922
I374
sVpanel
p5923
I1814
sVseriousness
p5924
I6582
sVabout
p5925
I59
sVactual
p5926
I3095
sVboards
p5927
I4246
sVwithdrew
p5928
I3921
sVaziz
p5929
I4683
sVintroduced
p5930
I1595
sVbrotherhood
p5931
I5757
sVbillions
p5932
I3936
sVchris
p5933
I1974
sVplayoff
p5934
I3109
sVfemale
p5935
I1561
sVkinda
p5936
I7274
sVmidfielder
p5937
I3260
sV1987
p5938
I2162
sV1984
p5939
I2260
sV1985
p5940
I2304
sVridge
p5941
I4174
sV1983
p5942
I2425
sV1980
p5943
I2273
sVrushed
p5944
I3887
sVbrides
p5945
I7033
sVbuckle
p5946
I7045
sV1988
p5947
I1879
sV1989
p5948
I1666
sV'80s
p5949
I6203
sVpro-european
p5950
I7882
sVbiggest
p5951
I863
sVbuy
p5952
I963
sVinsurer
p5953
I6058
sVbus
p5954
I1631
sVbrand
p5955
I2334
sVsequel
p5956
I5435
sVpreparations
p5957
I4355
sVrepeated
p5958
I2971
sVsprawling
p5959
I5616
sVembargo
p5960
I4248
sVwise
p5961
I4777
sVwish
p5962
I3031
sVminutes
p5963
I593
sVplutonium
p5964
I6000
sVsupreme
p5965
I1353
sVpin
p5966
I5428
sVdeaths
p5967
I1835
sVsupremo
p5968
I7194
sVpie
p5969
I5703
sVambassadors
p5970
I5550
sVshooting
p5971
I1652
sVcampus
p5972
I2356
sVunintelligible
p5973
I7578
sV48
p5974
I2696
sV49
p5975
I3274
sV46
p5976
I3150
sVdressed
p5977
I3953
sV45
p5978
I1729
sVclaiming
p5979
I3159
sVdetail
p5980
I3760
sV40
p5981
I787
sV41
p5982
I3014
sVsumerians
p5983
I7798
sVstrewing
p5984
I7893
sV85
p5985
I3528
sVconvicts
p5986
I6662
sVdrugging
p5987
I7659
sVchristians
p5988
I3972
sVresolution
p5989
I1462
sVbaker
p5990
I3662
sVhikes
p5991
I5992
sVaccidents
p5992
I4168
sVlimited
p5993
I1265
sVfacilities
p5994
I1774
sVsleep
p5995
I3572
sVayub
p5996
I7241
sV20-hour
p5997
I7650
sVhate
p5998
I4133
sVassembled
p5999
I4994
sVpoorly
p6000
I4869
sVozzy
p6001
I7401
sVviolate
p6002
I5415
sVparis
p6003
I1008
sVcrises
p6004
I5547
sVpoorest
p6005
I5162
sV7.62
p6006
I7492
sVal-thani
p6007
I7923
sVwarplanes
p6008
I5410
sVunder
p6009
I124
sVrightist
p6010
I6990
sVpride
p6011
I3934
sVforbidden
p6012
I5637
sVordnance
p6013
I6691
sVlegislators
p6014
I4039
sVrisk
p6015
I1086
sVrise
p6016
I1000
sVevery
p6017
I357
sVjack
p6018
I2039
sVvastly
p6019
I6485
sVencounter
p6020
I4497
sVschool
p6021
I164
sVvenue
p6022
I3965
sVdelightfully
p6023
I7531
sVfairfax
p6024
I6572
sVenjoy
p6025
I3194
sVpicketed
p6026
I7498
sVbicycle
p6027
I5430
sVleaders
p6028
I379
sVsandiganbayan
p6029
I7760
sVfairness
p6030
I6356
sVestimates
p6031
I2611
sVdirect
p6032
I1435
sVnair
p6033
I7097
sVsurrounding
p6034
I2486
sVstreet
p6035
I489
sVestimated
p6036
I1236
sVblue
p6037
I1152
sVhide
p6038
I4349
sVbeaten
p6039
I3216
sVliberty
p6040
I4030
sVachille
p6041
I7341
sVconduct
p6042
I2412
sVsupplier
p6043
I5297
sVsupplies
p6044
I2126
sVdisney
p6045
I2845
sVkicked
p6046
I4142
sVbunkers
p6047
I6744
sVgourevitch
p6048
I7875
sVhundreds
p6049
I1117
sVbeck
p6050
I5819
sVstudio
p6051
I1899
sVrepresented
p6052
I1980
sVpath
p6053
I2561
sVarroyo
p6054
I4710
sVenron
p6055
I4103
sVproperty
p6056
I1268
sVtx
p6057
I6998
sVforum
p6058
I2370
sVthronged
p6059
I7276
sVauction
p6060
I3683
sVleaves
p6061
I2055
sVchanged
p6062
I1132
sVanalysts
p6063
I937
sVchanges
p6064
I1019
sVpunishment
p6065
I3660
sVnight-time
p6066
I7677
sVstraw
p6067
I5072
sVconservatives
p6068
I3507
sVfeelings
p6069
I4002
sVvisible
p6070
I3869
sVanyhow
p6071
I7502
sVheathrow
p6072
I6599
sVtn
p6073
I7350
sVwould
p6074
I54
sVhospital
p6075
I716
sVm.
p6076
I2353
sVasset
p6077
I3835
sVraids
p6078
I3876
sVassessment
p6079
I3511
sVslaughtered
p6080
I6527
sVboomed
p6081
I7090
sV34-year-old
p6082
I7859
sVphone
p6083
I1228
sVconnecticut
p6084
I3255
sVexcellent
p6085
I3602
sVcasualties
p6086
I2773
sVtampa
p6087
I3235
sVmust
p6088
I388
sVshoot
p6089
I3442
sVjoin
p6090
I1377
sVmm
p6091
I2699
sVu.s.-backed
p6092
I6571
sVmt
p6093
I6956
sVinstall
p6094
I5253
sVmy
p6095
I192
sVgrenade
p6096
I5150
sVunilateral
p6097
I5442
sVestate
p6098
I1759
sVjoyous
p6099
I7059
sVkeep
p6100
I574
sVattract
p6101
I3695
sVguarantee
p6102
I3409
sVceremony
p6103
I1761
sVunmeasurable
p6104
I7926
sVend
p6105
I156
sVsitting
p6106
I2694
sVaccusations
p6107
I3645
sVtoxic
p6108
I4900
sVwidespread
p6109
I2690
sVcharging
p6110
I4930
sVbadly
p6111
I3323
sVmess
p6112
I5135
sVcoffers
p6113
I6719
sVdemanding
p6114
I2968
sVpredicated
p6115
I7403
sVjumping
p6116
I4882
sVparallel
p6117
I4179
sVrummy
p6118
I7674
sVstronghold
p6119
I4651
sVdanny
p6120
I4455
sVamid
p6121
I1308
sVacknowledged
p6122
I2352
sVupside
p6123
I6135
sVultimate
p6124
I4047
sVminn
p6125
I7727
sVenter
p6126
I2156
sVmajlis
p6127
I7044
sVacknowledges
p6128
I6099
sVmastectomy
p6129
I7549
sVexecuted
p6130
I3583
sVover
p6131
I74
sVrapes
p6132
I6837
sVlondon
p6133
I514
sVthesis
p6134
I6247
sVresidents
p6135
I1021
sVexchange
p6136
I636
sVimf
p6137
I3160
sVmongolia
p6138
I5521
sVwriting
p6139
I1576
sVdestroyed
p6140
I1848
sVcompelling
p6141
I5464
sV400
p6142
I2159
sVeugene
p6143
I5508
sViowa
p6144
I2914
sVtourist
p6145
I3008
sVprevented
p6146
I3984
sVsafwan
p6147
I7755
sVamman
p6148
I5507
sVtourism
p6149
I2277
sVshadows
p6150
I6280
sV30-year
p6151
I4402
sVnetherlands
p6152
I2084
sVbosnia
p6153
I1726
sVnotified
p6154
I5649
sVspokeswomen
p6155
I7700
sVchuck
p6156
I4861
sVdetroit
p6157
I2201
sVaffiliate
p6158
I5288
sVvictory
p6159
I643
sVeach
p6160
I235
sVlasting
p6161
I4413
sVprohibit
p6162
I6244
sVsigning
p6163
I2645
sVleftist
p6164
I4534
sVhanged
p6165
I6446
sVrovers
p6166
I6009
sVlebensraum
p6167
I7863
sVsaturday
p6168
I275
sVdriving
p6169
I1913
sVgod
p6170
I1471
sVwashed
p6171
I5599
sVpbg
p6172
I7945
sVtheodore
p6173
I5925
sVlaid
p6174
I2653
sVmillennium
p6175
I4586
sVnic
p6176
I7323
sVmarinello
p6177
I7897
sVgot
p6178
I403
sVgov
p6179
I6680
sVindependence
p6180
I1327
sVsept.
p6181
I1360
sVfree
p6182
I413
sVfred
p6183
I3805
sVicky
p6184
I7683
sVcounterparts
p6185
I4335
sVboosting
p6186
I4982
sVwanted
p6187
I731
sVdays
p6188
I248
sVsmokers
p6189
I6318
sVonto
p6190
I2037
sVinspectors
p6191
I3153
sValready
p6192
I409
sVnhl
p6193
I3590
sVhearing
p6194
I1602
sVrant
p6195
I7268
sVrelations
p6196
I797
sVdiesel-powered
p6197
I7800
sVtoy
p6198
I4814
sVrevival
p6199
I4278
sVtop
p6200
I219
sVsumatra
p6201
I6322
sVtoo
p6202
I315
sVtom
p6203
I1545
sVpercentage
p6204
I2276
sVtoe
p6205
I6025
sVurban
p6206
I2076
sVceiling
p6207
I4714
sVmurder
p6208
I1418
sVestrada
p6209
I5736
sVbrushes
p6210
I7049
sVserve
p6211
I1323
sVtook
p6212
I246
sVnegotiating
p6213
I3495
sVwestern
p6214
I552
sVsahiwal
p6215
I7786
sVtonkin
p6216
I7392
sVkidnaps
p6217
I7475
sVscenario
p6218
I4850
sVimmigrants
p6219
I2389
sVtourists
p6220
I2466
sV10th
p6221
I3141
sVbridge
p6222
I1569
sVran
p6223
I1371
sVtalking
p6224
I1807
sVregulate
p6225
I5661
sVpow-wow
p6226
I7912
sVfounding
p6227
I3359
sVtraditionally
p6228
I3546
sV1964
p6229
I3140
sV-
p6230
I11
sVclient
p6231
I3439
sVyucks
p6232
I7966
sVeffectiveness
p6233
I5383
sVthough
p6234
I411
sVpassover
p6235
I6968
sVplenty
p6236
I3438
sVcoin
p6237
I5788
sValabama
p6238
I3462
sVexplosives
p6239
I3474
sVdevastating
p6240
I4307
sVmetal
p6241
I2252
sVtreaty
p6242
I1695
sVorderly
p6243
I6521
sVreputation
p6244
I2803
sVenterprise
p6245
I3917
sVrupees
p6246
I5325
sVjidong
p6247
I7910
sVbait
p6248
I6794
sVinspire
p6249
I6218
sVpope
p6250
I2067
sVreductions
p6251
I5233
sVrandom
p6252
I4380
sVradio
p6253
I672
sVearth
p6254
I1737
sVbail
p6255
I4156
sVavailability
p6256
I5485
sVappealed
p6257
I3739
sVspite
p6258
I5549
sVdelays
p6259
I4083
sVminnesota
p6260
I2544
sVcommence
p6261
I6932
sVsupremacy
p6262
I6732
sVannounce
p6263
I3429
sVintersecting
p6264
I7257
sVhostility
p6265
I6144
sVwatch
p6266
I1638
sVfluid
p6267
I5412
sVcriticized
p6268
I2170
sVtuberculosis
p6269
I6262
sVdespite
p6270
I502
sVreport
p6271
I254
sVknocks
p6272
I6909
sVavenues
p6273
I6652
sVdominique
p6274
I6152
sVcountries
p6275
I251
sVcollusion
p6276
I7000
sVtwice
p6277
I1436
sVshots
p6278
I2151
sVinter-agency
p6279
I7860
sVfarther
p6280
I5579
sVswept
p6281
I3773
sVnut
p6282
I6729
sVroadmap
p6283
I6180
sVm1-a1
p6284
I7950
sVbed
p6285
I3268
sVmahmoud
p6286
I4196
sVdisturbing
p6287
I5734
sVindonesians
p6288
I6593
sVgrandmother
p6289
I5074
sVfinger
p6290
I4711
sVhopefully
p6291
I4587
sV6.8
p6292
I6461
sVapproach
p6293
I1522
sVjose
p6294
I2195
sVhe/she
p6295
I7391
sVweak
p6296
I2462
sVhowever
p6297
I212
sVboss
p6298
I3229
sVsoutheast
p6299
I1870
sVnews
p6300
I172
sVblasted
p6301
I5559
sVimprove
p6302
I1503
sVfaced
p6303
I1935
sVprotect
p6304
I1447
sVirregular
p6305
I6458
sVfault
p6306
I4526
sVplayers
p6307
I477
sVmerging
p6308
I6573
sVgames
p6309
I288
sVfaces
p6310
I1822
sVexpense
p6311
I4369
sVepidemic
p6312
I4765
sVtrust
p6313
I1760
sVhitler
p6314
I4743
sVconference
p6315
I446
sVbathroom
p6316
I5772
sVbeef
p6317
I3596
sVbeen
p6318
I51
sVquickly
p6319
I1144
sVsubmarine
p6320
I4538
sVbeer
p6321
I3501
sVexpected
p6322
I285
sVdrugs
p6323
I1537
sVrepublicans
p6324
I1297
sVsearch
p6325
I1411
sVenterprises
p6326
I3139
sVcraft
p6327
I4471
sVcatch
p6328
I2814
sVn
p6329
I3263
sVlesser
p6330
I4749
sVstopping
p6331
I4577
sVdarmawan
p6332
I7877
sVprovocative
p6333
I6141
sVexpenses
p6334
I3923
sVexperts
p6335
I1198
sVexperience
p6336
I1187
sVanniverary
p6337
I7955
sVsuggest
p6338
I2995
sVwound
p6339
I4437
sVlevelled
p6340
I6901
sVbeside
p6341
I5130
sVcomplex
p6342
I1613
sVbands
p6343
I3562
sVseveral
p6344
I201
sVsatellite
p6345
I2553
sVwelsh
p6346
I4576
sVsocial
p6347
I650
sVgreeted
p6348
I4967
sVcharacters
p6349
I2015
sVinsisted
p6350
I2193
sVmurdering
p6351
I6370
sVcycle
p6352
I3464
sVshortly
p6353
I1767
sVcharlie
p6354
I3962
sVocean
p6355
I2362
sVsavings
p6356
I3163
sVdetained
p6357
I2323
sVmother
p6358
I795
sVhearts
p6359
I4484
sVjean
p6360
I2222
sVoutnumbered
p6361
I5840
sVdeparted
p6362
I5046
sVproposed
p6363
I1191
sVpurchasing
p6364
I4772
sVuncooperative
p6365
I7399
sVcampbell
p6366
I3453
sVresigning
p6367
I6600
sVbanda
p6368
I6608
sVmonitored
p6369
I5328
sVsixers
p6370
I7051
sVteenager
p6371
I5005
sVtechnological
p6372
I4703
sVhmong
p6373
I6952
sVgave
p6374
I639
sVfallujah
p6375
I5496
sVadvances
p6376
I4638
sVbreaks
p6377
I3741
sVright-wing
p6378
I7040
sVcultural
p6379
I1627
sVbattled
p6380
I5460
sVjudge
p6381
I903
sVappearing
p6382
I3949
sVburns
p6383
I3710
sVburnt
p6384
I6149
sVadvanced
p6385
I1867
sVapart
p6386
I2488
sVsankara
p6387
I7654
sVexxon
p6388
I6226
sV59
p6389
I3905
sV58
p6390
I3635
sVgift
p6391
I3466
sV55
p6392
I2747
sV54
p6393
I3418
sV57
p6394
I3697
sVhunt
p6395
I3371
sVorlando
p6396
I4127
sV50
p6397
I683
sV52
p6398
I3203
sVspecific
p6399
I1808
sVrenamed
p6400
I3522
sVoffices
p6401
I1961
sVofficer
p6402
I918
sVserbian
p6403
I2952
sVhung
p6404
I4361
sVjazeera
p6405
I6032
sV56
p6406
I3518
sVsuccessfully
p6407
I3111
sVjennifer
p6408
I4483
sVmalaysia
p6409
I1707
sVclubs
p6410
I2280
sVmeters
p6411
I1904
sVelection
p6412
I365
sVescape
p6413
I2675
sVprecautions
p6414
I6477
sVarmed
p6415
I1071
sVice
p6416
I1640
sVeverything
p6417
I1141
sVcnn
p6418
I3870
sVconvict
p6419
I6555
sVchristmas
p6420
I2038
sVicu
p6421
I7434
sVcord
p6422
I6285
sVcore
p6423
I2407
sVarbitrary
p6424
I6343
sVdisappeared
p6425
I3940
sVcorp
p6426
I6048
sVpermitted
p6427
I4410
sVchapter
p6428
I3328
sVattacks
p6429
I506
sVo'neal
p6430
I5079
sVdinner
p6431
I2932
sVensure
p6432
I1719
sVefforts
p6433
I668
sVduke
p6434
I2933
sVpresence
p6435
I1642
sVcivil
p6436
I773
sVentrepreneur
p6437
I5881
sVabed
p6438
I6836
sVdonated
p6439
I4102
sVcoastal
p6440
I3088
sVrounds
p6441
I3024
sVmalvo
p6442
I7005
sVclass
p6443
I885
sVstuck
p6444
I3988
sVanderson
p6445
I2878
sVfought
p6446
I2102
sVcrews
p6447
I4477
sVpurposely
p6448
I7072
sVquestionable
p6449
I5859
sVhead
p6450
I360
sVattempted
p6451
I2829
sVdifferences
p6452
I2500
sVdiscourage
p6453
I6289
sVwireless
p6454
I3901
sVheat
p6455
I1857
sVuncle
p6456
I4063
sVsustained
p6457
I3574
sVremoved
p6458
I2094
sVcounsel
p6459
I3551
sVportions
p6460
I5216
sVeject
p6461
I7372
sVversions
p6462
I3090
sVhis/her
p6463
I7183
sVbids
p6464
I5086
sVdonald
p6465
I3319
sVretire
p6466
I4476
sVprematurely
p6467
I6771
sVpenal
p6468
I6703
sVsuspicions
p6469
I5829
sVeverest
p6470
I6545
sVtrip
p6471
I1267
sVregime
p6472
I1778
sVno
p6473
I84
sVwhen
p6474
I61
sVtil
p6475
I7333
sVtim
p6476
I2802
sVtin
p6477
I5439
sVsetting
p6478
I1827
sVpapers
p6479
I2894
sVtie
p6480
I2446
sVdepot
p6481
I4808
sVteed
p6482
I7210
sVpicture
p6483
I1743
sVcleric
p6484
I4754
sVphoenix
p6485
I3122
sVsolana
p6486
I5407
sVfootball
p6487
I533
sVdischarge
p6488
I6108
sVyounger
p6489
I2204
sVlonger
p6490
I1047
sVbullet
p6491
I4427
sVsacks
p6492
I6068
sVyacht
p6493
I5689
sVvietnam
p6494
I1512
sVremarked
p6495
I6462
sVserious
p6496
I1007
sVroh
p6497
I4759
sVcoach
p6498
I605
sVaffair
p6499
I3488
sVbrokerages
p6500
I6866
sVrod
p6501
I4889
sVfocus
p6502
I1219
sVleads
p6503
I2219
sVmarion
p6504
I5543
sV.05
p6505
I7395
sVremarkably
p6506
I6191
sVrow
p6507
I2143
sV1942
p6508
I3730
sV1941
p6509
I3756
sVpassage
p6510
I3503
sVcharge
p6511
I1059
sVweakening
p6512
I5717
sVfederation
p6513
I1947
sVadvantage
p6514
I1868
sVibrahim
p6515
I4385
sVuntenable
p6516
I7154
sVtanks
p6517
I3279
sV420
p6518
I6759
sVcook
p6519
I2976
sVdenounced
p6520
I4597
sVhour
p6521
I1119
sVpoliceman
p6522
I4879
sVphilippines
p6523
I2003
sVposts
p6524
I3550
sVhawaii
p6525
I4042
sVstandards
p6526
I1758
sVbrothel
p6527
I7087
sVquick
p6528
I2379
sVpork
p6529
I5160
sVsays
p6530
I210
sVinvades
p6531
I7504
sVcolin
p6532
I3821
sVdried
p6533
I5444
sVbacteria
p6534
I5073
sVendangering
p6535
I6860
sVconstitution
p6536
I1165
sVpatrols
p6537
I5250
sVagrees
p6538
I4561
sVescorted
p6539
I5941
sVgoes
p6540
I1380
sVscripted
p6541
I6818
sVwater
p6542
I428
sVfilmed
p6543
I4602
sVbaseball
p6544
I1392
sVtwentieth
p6545
I6381
sVgroups
p6546
I501
sVshaquille
p6547
I6718
sV[
p6548
I2565
sVsupplying
p6549
I6016
sVunidentified
p6550
I4510
sVthirty
p6551
I4688
sVhealthy
p6552
I2915
sVguilty
p6553
I2033
sVlaw-abiding
p6554
I7823
sVemerge
p6555
I4608
sVshootings
p6556
I5321
sVshelled
p6557
I6690
sVcredited
p6558
I3942
sVparalyzed
p6559
I6270
sV1st
p6560
I2464
sVswallowed
p6561
I6823
sVcrisis
p6562
I712
sVsports
p6563
I865
sVabbas
p6564
I2618
sVmsm
p6565
I7671
sVarabian
p6566
I5953
sVandy
p6567
I3226
sVmemory
p6568
I2476
sVaustralian
p6569
I790
sVdeplores
p6570
I7383
sVtoday
p6571
I371
sVkerry
p6572
I2643
sVriot
p6573
I4201
sVsessions
p6574
I3512
sVfuel
p6575
I1351
sVbeers
p6576
I6514
sVcases
p6577
I830
sVhamshahri
p6578
I7817
sVinsights
p6579
I6648
sVtribunal
p6580
I3125
sVa-10
p6581
I7378
sVlocal
p6582
I249
sVdistricts
p6583
I2596
sVms.
p6584
I2341
sVjudy
p6585
I6101
sVferry
p6586
I3979
sVsemi-automatic
p6587
I7462
sVnursing
p6588
I4652
sVfigure
p6589
I1229
sVdownfall
p6590
I6621
sVkye
p6591
I7468
sVcritic
p6592
I3717
sVdropped
p6593
I1166
sVari
p6594
I6498
sVcounting
p6595
I4357
sVlusaka
p6596
I6695
sVparliamentary
p6597
I2006
sVprice-fixing
p6598
I7914
sVrequirements
p6599
I3175
sVsecured
p6600
I4071
sVcuba
p6601
I2048
sV1
p6602
I176
sVvital
p6603
I3425
sVcardinal
p6604
I4390
sVfourth
p6605
I680
sVendorsement
p6606
I5208
sVgenocide
p6607
I3873
sVspeaks
p6608
I4524
sVnarrowly
p6609
I5000
sVparamount
p6610
I5405
sVcocktail
p6611
I6357
sVinformation
p6612
I417
sVeighty
p6613
I6712
sVislamic
p6614
I935
sV4th
p6615
I3767
sVeighth
p6616
I2492
sVbranches
p6617
I3842
sVsucceeded
p6618
I3162
sVrefund
p6619
I6730
sVexclusive
p6620
I4195
sVcomfort
p6621
I4584
sVcheckpoints
p6622
I5916
sVmainly
p6623
I1599
sVcanary
p6624
I6646
sVmotions
p6625
I6570
sVblocked
p6626
I3145
sVfedayeen
p6627
I7490
sVcourthouse
p6628
I5171
sVwallace
p6629
I4494
sVorganisation
p6630
I2891
sVlow-cost
p6631
I7254
sVplatform
p6632
I2743
sVfarmer
p6633
I4388
sVcoordinated
p6634
I5139
sVhappened
p6635
I1515
sVqualifies
p6636
I6879
sVdevastated
p6637
I4905
sVevolution
p6638
I4434
sVqualified
p6639
I3311
sVhamilton
p6640
I3352
sVfeathered
p6641
I7294
sVcampuses
p6642
I5975
sVterm
p6643
I566
sVname
p6644
I309
sVstabilize
p6645
I5687
sVopera
p6646
I2570
sVpossibilities
p6647
I5254
sVrealistic
p6648
I5036
sVrealise
p6649
I6770
sVturfed
p6650
I7866
sVrealism
p6651
I6588
sVweighted
p6652
I5541
sVpersian
p6653
I4359
sVbegun
p6654
I2545
sVintended
p6655
I1905
sVultimately
p6656
I2625
sVprofit
p6657
I1233
sVtensions
p6658
I2784
sVoklahoma
p6659
I3083
sVfactory
p6660
I2489
sVcancels
p6661
I7015
sVgreenstock
p6662
I7467
sV12-year-old
p6663
I7617
sVkent
p6664
I4302
sVeagle
p6665
I4419
sVattended
p6666
I1507
sVanwar
p6667
I5106
sVtheory
p6668
I2149
sVlawmaker
p6669
I4406
sVdispatched
p6670
I5246
sVsoftware
p6671
I1455
sVimpose
p6672
I3834
sVmotion
p6673
I2737
sVturn
p6674
I871
sVbest-known
p6675
I6895
sVplace
p6676
I240
sVmortars
p6677
I6426
sVunborn
p6678
I7026
sVteammates
p6679
I4188
sVorigin
p6680
I3114
sVsanchez
p6681
I4506
sVrevenue
p6682
I1578
sVcoming
p6683
I769
sVsymbolic
p6684
I4997
sVsoaring
p6685
I4827
sVgeorge
p6686
I642
sVmillions
p6687
I1790
sVgiven
p6688
I452
sVnecessarily
p6689
I3995
sVdistrict
p6690
I375
sVnative-born
p6691
I7765
sVeurope
p6692
I523
sVplastic
p6693
I3220
sVconvention
p6694
I1869
sV14-year-old
p6695
I7600
sVwhite
p6696
I296
sVgives
p6697
I1738
sVbriton
p6698
I6411
sVhug
p6699
I6698
sVhub
p6700
I4628
sVcope
p6701
I4676
sVseason
p6702
I195
sVmontenegro
p6703
I4696
sVreleased
p6704
I354
sVcopy
p6705
I3715
sVpopulation
p6706
I483
sVwide
p6707
I1224
sVnathan
p6708
I5256
sVunfortunately
p6709
I3824
sVrequire
p6710
I2158
sVdiplomatic
p6711
I1771
sVunmedicated
p6712
I7986
sVspokeswoman
p6713
I1713
sVaccused
p6714
I859
sV1,000-pound
p6715
I7762
sVcards
p6716
I2638
sVpoisoning
p6717
I5824
sVmarines
p6718
I3677
sVoutcome
p6719
I3138
sVoath
p6720
I5494
sVand
p6721
I6
sVarmored
p6722
I4701
sVhmos
p6723
I6810
sVconfessed
p6724
I5399
sVprostitution
p6725
I5917
sVmates
p6726
I6479
sVrent
p6727
I4521
sVnominating
p6728
I6689
sVsells
p6729
I4323
sVany
p6730
I130
sVmarathon
p6731
I3973
sVwandered
p6732
I6853
sVdining
p6733
I5012
sVemphasis
p6734
I4220
sVresembling
p6735
I6637
sVblunt
p6736
I5805
sVsure
p6737
I1054
sVmultiple
p6738
I2550
sVukrainian
p6739
I3809
sVazores
p6740
I7065
sVfalls
p6741
I2410
sVdonation
p6742
I5486
sVstormed
p6743
I5289
sVcleared
p6744
I3643
sVconsidered
p6745
I818
sVjakarta
p6746
I3290
sVproud
p6747
I3567
sVhungry
p6748
I5172
sVkoran
p6749
I6787
sVtrafficking
p6750
I3841
sVhear
p6751
I2114
sVsenior
p6752
I592
sVitn
p6753
I7526
sVconvoy
p6754
I3976
sVraja
p6755
I6398
sVfeminist
p6756
I6311
sVcheap
p6757
I4044
sVtroy
p6758
I4721
sVsouthwestern
p6759
I4163
sVpre-emptive
p6760
I7778
sVgulf
p6761
I1591
sVwritten
p6762
I958
sVcrime
p6763
I1299
sVexplicitly
p6764
I5939
sVbelieving
p6765
I5369
sVcautioned
p6766
I5151
sVpresbyterian
p6767
I6098
sVuncles
p6768
I7080
sVexpectation
p6769
I5739
sVlighter
p6770
I5688
sVhedge
p6771
I5193
sVregarding
p6772
I2938
sVpaper
p6773
I1269
sV18-year-old
p6774
I7582
sVpredicted
p6775
I2700
sVdiscussing
p6776
I4315
sVignored
p6777
I4034
sVpummeled
p6778
I7145
sVconnections
p6779
I4219
sVcollege
p6780
I497
sVparking
p6781
I3774
sV1928
p6782
I4613
sVstanley
p6783
I3144
sVencouraged
p6784
I3257
sVfails
p6785
I4581
sVfarmers
p6786
I2068
sVways
p6787
I1370
sVsubsequent
p6788
I3265
sVreview
p6789
I1249
sVweapons
p6790
I726
sVoutside
p6791
I582
sVsurfaced
p6792
I5803
sVcaucus
p6793
I5385
sVarrival
p6794
I2875
sVoriginated
p6795
I5121
sVhariri
p6796
I5300
sVsacked
p6797
I5136
sVroemer
p6798
I7457
sVcities
p6799
I1150
sVcome
p6800
I324
sVpostage
p6801
I6826
sVreaction
p6802
I2401
sVacquiring
p6803
I5659
sVmissions
p6804
I3516
sVlibya
p6805
I3656
sVsuccesses
p6806
I5646
sVregion
p6807
I366
sVpriests
p6808
I4356
sVquiet
p6809
I3213
sVcontract
p6810
I929
sVprompted
p6811
I3063
sVcolumnist
p6812
I4365
sVsenator
p6813
I2065
sVdeported
p6814
I5466
sVduty
p6815
I2382
sVpakistan
p6816
I647
sVafterwards
p6817
I4318
sVcolor
p6818
I2296
sVpot
p6819
I4876
sVperiod
p6820
I562
sVpop
p6821
I2363
sV60
p6822
I1084
sV61
p6823
I3964
sV62
p6824
I3701
sV63
p6825
I3852
sV64
p6826
I2837
sV65
p6827
I1833
sVpolo
p6828
I6001
sVbizarre
p6829
I5774
sVpoll
p6830
I1793
sVskeletons
p6831
I6965
sVturkey
p6832
I1097
sVteammate
p6833
I4254
sVhoward
p6834
I2312
sVabdul
p6835
I3455
sVescalated
p6836
I6369
sVeyewitnesses
p6837
I6933
sVpeaceful
p6838
I2559
sVhelicopter
p6839
I2794
sVfeaturing
p6840
I2896
sV500
p6841
I1339
sVengine
p6842
I1973
sVdirection
p6843
I2047
sVblessing
p6844
I5779
sVandrew
p6845
I2415
sVcolo.
p6846
I6438
sVminister
p6847
I141
sVandrea
p6848
I5403
sVspirit
p6849
I2652
sVpilot
p6850
I2306
sVcase
p6851
I303
sVmyself
p6852
I2889
sVamend
p6853
I6466
sVmount
p6854
I2539
sVcash
p6855
I1426
sVcast
p6856
I1697
sVintifada
p6857
I6705
sVabducted
p6858
I5066
sVvest
p6859
I6717
sVtelephone
p6860
I1533
sVcouples
p6861
I3252
sVgood
p6862
I218
sVpunched
p6863
I6537
sVdecisively
p6864
I6783
sVauthor
p6865
I1637
sVgranted
p6866
I2365
sVpostwar
p6867
I5827
sVreminded
p6868
I5377
sVcheck
p6869
I2206
sVmanila
p6870
I3725
sVbuys
p6871
I5869
sVreminder
p6872
I5596
sVinsurers
p6873
I5261
sVevents
p6874
I934
sVweek
p6875
I147
sVvivendi
p6876
I6613
sVnest
p6877
I5854
sVrefusal
p6878
I4398
sVdriver
p6879
I1828
sVdirector
p6880
I367
sVsubmarines
p6881
I5984
sVarose
p6882
I5780
sVstatue
p6883
I4444
sVchanging
p6884
I2551
sVvowed
p6885
I2994
sVbreakdowns
p6886
I7070
sVweakened
p6887
I4725
sVpennsylvania
p6888
I1878
sVofra
p6889
I7735
sVranch
p6890
I4381
sVwithout
p6891
I294
sVrelief
p6892
I1734
sVrelied
p6893
I5570
sVinability
p6894
I5597
sVreward
p6895
I4769
sVbodies
p6896
I1659
sVjustify
p6897
I5164
sVmccrary
p6898
I7684
sVactions
p6899
I1861
sVviolent
p6900
I2332
sVkill
p6901
I1820
sVpolish
p6902
I2400
sVperilous
p6903
I6935
sVcaptured
p6904
I1931
sVhalfway
p6905
I5401
sVblow
p6906
I2922
sVannouncement
p6907
I1963
sVny
p6908
I4868
sVrose
p6909
I484
sVseems
p6910
I1305
sVexcept
p6911
I1951
sVairfield
p6912
I5831
sVlets
p6913
I5364
sVinterested
p6914
I2345
sVbloc
p6915
I3436
sVassociation
p6916
I633
sVpoised
p6917
I5104
sVdisrupt
p6918
I5562
sVkingdom
p6919
I1766
sVholding
p6920
I1338
sVkills
p6921
I4013
sVvirginia
p6922
I1593
sVinflation
p6923
I1531
sVconfined
p6924
I5449
sVaccepted
p6925
I1988
sVjdam
p6926
I7830
sVkennedy
p6927
I2135
sVphotographs
p6928
I3768
sVpatrick
p6929
I2576
sVtowed
p6930
I6747
sVdonations
p6931
I4082
sVsettler
p6932
I6412
sVtower
p6933
I2646
sVreduced
p6934
I2019
sVsame-sex
p6935
I6700
sVpacific
p6936
I1209
sVbylaws
p6937
I7297
sVtable
p6938
I1710
sVinformant
p6939
I6685
sVprovided
p6940
I1164
sVmood
p6941
I3990
sVlegal
p6942
I814
sVmoon
p6943
I2967
sVhanif
p6944
I7488
sVprovides
p6945
I1849
sVfreed
p6946
I3458
sVkalak
p6947
I7880
sVcommunicate
p6948
I5363
sVslaughter
p6949
I5630
sVterrified
p6950
I6611
sV_
p6951
I97
sVon
p6952
I13
sVsubdued
p6953
I6414
sVok
p6954
I3897
sVoh
p6955
I2843
sVjeep
p6956
I6395
sVof
p6957
I4
sVcoast-based
p6958
I7983
sVdiscussed
p6959
I2449
sVstand
p6960
I1303
sVexecs
p6961
I7338
sVor
p6962
I46
sVhypothermia
p6963
I7252
sVcommunication
p6964
I3096
sVgarner
p6965
I6204
sVspinal
p6966
I6445
sVrising
p6967
I1474
sVdetermine
p6968
I2216
sVgary
p6969
I3013
sVstrictly
p6970
I4918
sVthere
p6971
I63
sValleged
p6972
I1486
sVinterfax
p6973
I4442
sVstrict
p6974
I3890
sVg-8
p6975
I6746
sVracist
p6976
I5450
sVvalley
p6977
I1403
sVcatholics
p6978
I4660
sVregard
p6979
I3784
sVamongst
p6980
I4871
sVcabinet
p6981
I1316
sVstaunchest
p6982
I7157
sVpromote
p6983
I2024
sVfaster
p6984
I3166
sVextermination
p6985
I7010
sVkatrina
p6986
I4623
sVl.a.
p6987
I4894
sVstrongly
p6988
I2529
sVtaylor
p6989
I2294
sVcontributors
p6990
I6162
sVcinema
p6991
I4498
sVtaste
p6992
I3621
sVtotaling
p6993
I5885
sVminneapolis
p6994
I5235
sVcbs
p6995
I2901
sVbritain
p6996
I686
sVgoverned
p6997
I5426
sVpolitics
p6998
I1333
sVbishop
p6999
I2603
sV4.5
p7000
I4603
sVpiracy
p7001
I5522
sVinsurance
p7002
I1379
sVrubber
p7003
I4273
sV5
p7004
I420
sVimmunity
p7005
I5131
sV101st
p7006
I6970
sVrequested
p7007
I3446
sVbriefly
p7008
I3010
sVseparate
p7009
I1307
sVsouls
p7010
I6288
sVbullets
p7011
I4669
sVincluded
p7012
I671
sV5-day
p7013
I7712
sVstocks
p7014
I875
sVfinals
p7015
I2082
sVal-qaeda
p7016
I7191
sVmissed
p7017
I2000
sVernie
p7018
I6205
sVcalls
p7019
I947
sVwife
p7020
I693
sVodds
p7021
I4214
sVdirectors
p7022
I2839
sVderrick
p7023
I6624
sVtreason
p7024
I5974
sVfallout
p7025
I5920
sVall
p7026
I64
sVlace
p7027
I6820
sVchinese
p7028
I325
sVali
p7029
I1992
sVlaci
p7030
I7603
sVlack
p7031
I1433
sVspacecraft
p7032
I5468
sVfollow
p7033
I1725
sVsettlement
p7034
I1422
sVdecisions
p7035
I2177
sVapartment
p7036
I2695
sVswitched
p7037
I4753
sVacting
p7038
I1929
sVthursday
p7039
I184
sVremoval
p7040
I4420
sVprogram
p7041
I369
sVlawmakers
p7042
I1705
sVdeserters
p7043
I7266
sVactivities
p7044
I1184
sVbelonging
p7045
I4316
sVwoman
p7046
I774
sVworse
p7047
I2527
sVegyptian
p7048
I2257
sVfar
p7049
I370
sVfat
p7050
I3215
sVsons
p7051
I2627
sVfan
p7052
I2893
sVawful
p7053
I5878
sVtreating
p7054
I5049
sVlist
p7055
I665
sVprolonged
p7056
I5513
sVgrandfather
p7057
I4567
sVlesbians
p7058
I6716
sVlisa
p7059
I4734
sVprogramme
p7060
I2629
sVtel
p7061
I3597
sVten
p7062
I1628
sVted
p7063
I4310
sVtee
p7064
I4913
sVrate
p7065
I567
sVdesign
p7066
I1217
sVnbc
p7067
I2766
sVfunctioning
p7068
I5633
sVmicrobiologist
p7069
I7501
sVmilosevic
p7070
I2741
sVsue
p7071
I4685
sVdeeply
p7072
I3115
sVsum
p7073
I4501
sVbrief
p7074
I2278
sVversion
p7075
I1032
sVattitudes
p7076
I5575
sVdiscern
p7077
I7165
sVracing
p7078
I2106
sVguns
p7079
I2610
sVwomb
p7080
I7058
sVlayers
p7081
I5711
sVchristian
p7082
I1332
sVeligibility
p7083
I6387
sVsupposedly
p7084
I5548
sVbehaviour
p7085
I5647
sVcombating
p7086
I6510
sVandrews
p7087
I5262
sVobstetricians
p7088
I7550
sVtragedy
p7089
I3799
sVnaval
p7090
I2557
sVallows
p7091
I2240
sVchain
p7092
I2587
sVoptions
p7093
I2533
sVex-president
p7094
I7790
sVthankfully
p7095
I7132
sVsuddenly
p7096
I3193
sVairlifting
p7097
I7624
sVabsentia
p7098
I6789
sVproceed
p7099
I4580
sVyilmaz
p7100
I6974
sVbranded
p7101
I5697
sVminor
p7102
I1966
sVisrael
p7103
I313
sVknows
p7104
I2053
sVproblem
p7105
I737
sVflag
p7106
I2556
sVbasically
p7107
I4086
sVknown
p7108
I224
sVthrowers
p7109
I7221
sVglad
p7110
I5069
sVpolicemen
p7111
I3967
sVdebated
p7112
I5771
sVintercepted
p7113
I5814
sVv
p7114
I2233
sVprotestors
p7115
I6147
sVembarrassing
p7116
I5657
sVprompting
p7117
I4590
sVniagara
p7118
I6702
sVpond
p7119
I5658
sVairplane
p7120
I5055
sVinfluenced
p7121
I3845
sVkuwaiti
p7122
I5509
sVcourt
p7123
I202
sVgoal
p7124
I706
sV5.6
p7125
I6095
sVrather
p7126
I854
sVbreaking
p7127
I2636
sS'<PAD>'
p7128
I0
sVjailers
p7129
I7562
sVstemming
p7130
I6129
sVspeeding
p7131
I6211
sVbarghouti
p7132
I7002
sVokay
p7133
I6679
sVreflect
p7134
I3460
sVadventure
p7135
I4519
sVdissolving
p7136
I7069
sVshort
p7137
I629
sV33-year-old
p7138
I7841
sVdeparture
p7139
I3211
sVsupervision
p7140
I4673
sVshore
p7141
I3463
sVassailant
p7142
I6854
sVlhr
p7143
I7979
sVhalf-dozen
p7144
I7801
sVconstructively
p7145
I7379
sVturnover
p7146
I3433
sVseptember
p7147
I439
sVdeveloped
p7148
I1121
sVmission
p7149
I961
sVdisabled
p7150
I4200
sVoutraged
p7151
I6172
sVlogan
p7152
I6072
sVscientist
p7153
I3850
sVpretext
p7154
I6647
sVislam
p7155
I2760
sVthirtieth
p7156
I7651
sVstyle
p7157
I1102
sVclashed
p7158
I5303
sVpray
p7159
I5386
sVassaulting
p7160
I6791
sVlobbed
p7161
I7063
sVclashes
p7162
I2781
sVresort
p7163
I2554
sVparts
p7164
I1017
sVmight
p7165
I412
sVjacobo
p7166
I7625
sVsomebody
p7167
I3624
sVgovernorate
p7168
I6835
sVhunter
p7169
I4091
sVincitement
p7170
I6982
sVbrutally
p7171
I6731
sVrecliners
p7172
I7824
sVsit-in
p7173
I7728
sVbigger
p7174
I2777
sVinstructions
p7175
I4675
sVlevel
p7176
I503
sVtelegraph
p7177
I5491
sVlast-ditch
p7178
I7745
sVfriendship
p7179
I3747
sVmedford
p7180
I7201
sVweight
p7181
I2357
sVgeneration
p7182
I1939
sV173rd
p7183
I7711
sV40,000
p7184
I4479
sVbrother
p7185
I1167
sVexpect
p7186
I1480
sVkobe
p7187
I5761
sValcohol
p7188
I3403
sVwondered
p7189
I5874
sVconvicting
p7190
I7483
sVsuzy
p7191
I7328
sVhealth
p7192
I358
sVhill
p7193
I1281
sVshipment
p7194
I5844
sVkyodo
p7195
I6350
sV1-3
p7196
I6406
sVwisconsin
p7197
I3484
sVfriday
p7198
I185
sV17-year-old
p7199
I7545
sValzheimer
p7200
I6251
sVexecute
p7201
I6224
sVfour-month
p7202
I7717
sVteach
p7203
I4136
sVsidewalk
p7204
I6441
sVthrown
p7205
I3676
sVthread
p7206
I6576
sVsylvester
p7207
I6812
sVcircuit
p7208
I2725
sVtwenty
p7209
I3669
sVconsequence
p7210
I5517
sVfallen
p7211
I2899
sVfeel
p7212
I974
sVradical
p7213
I2991
sVdiller
p7214
I7105
sVlinking
p7215
I4680
sVfeet
p7216
I1203
sVsympathy
p7217
I5221
sVbrave
p7218
I5674
sVcolombia
p7219
I2521
sVfees
p7220
I3084
sVdetonated
p7221
I5807
sVcorporal
p7222
I6722
sVpasses
p7223
I2958
sVstory
p7224
I521
sVtemperature
p7225
I3373
sVcrossville
p7226
I7909
sVleading
p7227
I589
sVinterviews
p7228
I3214
sVstrategy
p7229
I1665
sVf-14
p7230
I7519
sVstorm
p7231
I1744
sVfinances
p7232
I4823
sVrecovered
p7233
I2871
sVattendants
p7234
I6472
sVerupted
p7235
I3969
sVrelieved
p7236
I5336
sVexploded
p7237
I3589
sVhotel
p7238
I1194
sVcondoleezza
p7239
I5388
sVrifle
p7240
I4448
sVconvinced
p7241
I3351
sVking
p7242
I682
sVkind
p7243
I900
sVdouble
p7244
I1241
sVinvaded
p7245
I5017
sVaims
p7246
I3606
sVshalom
p7247
I6672
sVarchitect
p7248
I3696
sVrisks
p7249
I2944
sVscanners
p7250
I6930
sVdana
p7251
I5775
sVrisky
p7252
I5207
sVbreakneck
p7253
I7385
sVmotivation
p7254
I5726
sVuniforms
p7255
I5217
sVoutstanding
p7256
I3075
sVstrengthen
p7257
I3108
sVsuspicious
p7258
I4853
sVdepleted
p7259
I6516
sVfiona
p7260
I7021
sVheightening
p7261
I7236
sVwilson
p7262
I2438
sVsecretariat
p7263
I5966
sVport
p7264
I1366
sVmiddlemen
p7265
I7244
sVchairman
p7266
I654
sVfinding
p7267
I2137
sVdonor
p7268
I4935
sVadded
p7269
I293
sVelectric
p7270
I2202
sVwarnings
p7271
I4140
sVintervened
p7272
I6281
sVmentality
p7273
I6491
sVmeasures
p7274
I1149
sVreach
p7275
I996
sVreunited
p7276
I6060
sVreact
p7277
I5353
sV75
p7278
I2436
sVshareholder
p7279
I4767
sV72
p7280
I3571
sVu.s.-led
p7281
I4368
sV70
p7282
I1547
sVnothing
p7283
I914
sVassociating
p7284
I7300
sVmeasured
p7285
I4348
sV79
p7286
I4695
sV78
p7287
I4336
sVdealers
p7288
I2592
sVwindows
p7289
I2063
sVtraditional
p7290
I1237
sVhentoff
p7291
I7825
sVdissolved
p7292
I5269
sVinstitutions
p7293
I1915
sVlying
p7294
I3837
sVstones
p7295
I4068
sVo'conner
p7296
I7789
sVroutinely
p7297
I5102
sVtilly
p7298
I7481
sVpenalty
p7299
I1783
sVjiddah
p7300
I7521
sVfeminists
p7301
I7053
sVshepherd
p7302
I5978
sVhis
p7303
I26
sVpublicity
p7304
I4535
sVhiv
p7305
I3137
sVwhistle
p7306
I6156
sV5,000
p7307
I2969
sVtime-consuming
p7308
I7611
sVaaa
p7309
I6519
sVhim
p7310
I103
sVnon-payment
p7311
I7768
sVinvestigate
p7312
I3363
sVactivity
p7313
I1739
sVrelentless
p7314
I6257
sVwrote
p7315
I820
sVforego
p7316
I7407
sVart
p7317
I750
sVdump
p7318
I5835
sVachieved
p7319
I2714
sVintelligence
p7320
I1192
sVdefense
p7321
I473
sVare
p7322
I32
sV2.2
p7323
I4801
sVarm
p7324
I2426
sVdeclined
p7325
I1314
sVvisualize
p7326
I7376
sVthreats
p7327
I2602
sVslapped
p7328
I6483
sVunions
p7329
I2812
sVdismantling
p7330
I6425
sVvarious
p7331
I896
sVmarriage
p7332
I1786
sVnumerous
p7333
I1911
sVcorruption
p7334
I1742
sVkorea
p7335
I570
sVrecently
p7336
I734
sVcreating
p7337
I2199
sVinitially
p7338
I1751
sVsold
p7339
I898
sVattention
p7340
I975
sVopposition
p7341
I573
sVfranchise
p7342
I3556
sVcitys
p7343
I7855
sVcondo
p7344
I6902
sVprelude
p7345
I6655
sVprescription
p7346
I5114
sVsks
p7347
I7676
sVlicense
p7348
I3285
sVbecame
p7349
I300
sVfraternity
p7350
I6450
sVbond
p7351
I1753
sVdistress
p7352
I6094
sVreasons
p7353
I1884
sVsmith
p7354
I1113
sVvillage
p7355
I626
sVeyewitness
p7356
I6841
sVpr
p7357
I6708
sVmilton
p7358
I5892
sVdun
p7359
I7100
sVrumeila
p7360
I7901
sVgravity
p7361
I5636
sVissawi
p7362
I7705
sVpolitical
p7363
I209
sVdue
p7364
I443
sVteacher
p7365
I2318
sVwhom
p7366
I1197
sVwatchword
p7367
I7689
sVcheckbook
p7368
I7384
sVph
p7369
I6919
sVwhoa
p7370
I7446
sVpm
p7371
I2945
sVflight
p7372
I1213
sV1950s
p7373
I3358
sValgeria
p7374
I4173
sVfirefighters
p7375
I4370
sVkramers
p7376
I7899
sV1860
p7377
I5884
sVdemand
p7378
I932
sVrocking
p7379
I6882
sVplants
p7380
I1871
sVstolen
p7381
I3818
sVparachuted
p7382
I7474
sVfrozen
p7383
I4076
sVevaluated
p7384
I6471
sVbehavior
p7385
I2667
sVp.
p7386
I3271
sVfrantic
p7387
I6686
sVlodged
p7388
I6384
sVbuckeye
p7389
I7359
sVrid
p7390
I4787
sVlengthy
p7391
I4890
sVdismember
p7392
I7734
sVshirt
p7393
I4032
sVfirearms
p7394
I5456
sVwidely
p7395
I1709
sV9
p7396
I777
sVspears
p7397
I6140
sVpro-reform
p7398
I7956
sVdaughters
p7399
I3588
sVhigher
p7400
I602
sVarrives
p7401
I4366
sVrestraint
p7402
I5506
sVnegotiate
p7403
I3613
sVholidays
p7404
I4379
sVflown
p7405
I4539
sVarrived
p7406
I1116
sVlower
p7407
I664
sVdancing
p7408
I4166
sVanybody
p7409
I3607
sVanalysis
p7410
I2285
sVedge
p7411
I2062
sVmachinery
p7412
I4730
sVstating
p7413
I4618
sVknow
p7414
I344
sVatlanta-area
p7415
I7996
sVquestions
p7416
I1174
sVrodong
p7417
I7326
sVregardless
p7418
I4093
sV15-year
p7419
I5534
sVprince
p7420
I1694
sVprofitable
p7421
I4824
sVadvisers
p7422
I4159
sVworkers
p7423
I535
sVexclusively
p7424
I4780
sVgovernmental
p7425
I4558
sVproblematic
p7426
I6513
sVviolations
p7427
I3580
sVcomplaint
p7428
I3700
sVadvocate
p7429
I4324
sVclemency
p7430
I6720
sVave.
p7431
I6587
sVjacksonville
p7432
I5709
sVskeptical
p7433
I5107
sVconfront
p7434
I5280
sVcommanders
p7435
I3828
sVignore
p7436
I4991
sVunstable
p7437
I6175
sVyorker
p7438
I6296
sVessential
p7439
I3199
sVhinted
p7440
I5617
sVfucking
p7441
I7520
sVunderstood
p7442
I4108
sV3.5
p7443
I4105
sVgrenades
p7444
I5299
sVvacate
p7445
I7103
sVgradually
p7446
I3664
sVnablus
p7447
I6114
sVmeds
p7448
I7701
sVprof
p7449
I7471
sVanna
p7450
I4010
sVmartin
p7451
I1352
sVraided
p7452
I5312
sVrefused
p7453
I1247
sVrefuses
p7454
I4848
sVintense
p7455
I3117
sVpipeline
p7456
I3716
sVcautious
p7457
I4429
sVseeped
p7458
I7487
sVfiring
p7459
I3259
sVbrooklyn
p7460
I3658
sVrange
p7461
I982
sVmilitia
p7462
I3189
sVhatred
p7463
I5615
sVcredible
p7464
I5166
sVeight-year-old
p7465
I7750
sVconquest
p7466
I6088
sVcanal
p7467
I3619
sVimpressed
p7468
I4530
sVgouge
p7469
I7560
sVpundit
p7470
I7259
sVdefaming
p7471
I7505
sVlone
p7472
I4818
sVfast
p7473
I1539
sVupheld
p7474
I5423
sVconceivable
p7475
I7120
sVanalyze
p7476
I6299
sVrepeatedly
p7477
I2427
sVdelta
p7478
I3133
sVjunior
p7479
I2112
sVraising
p7480
I2020
sVpatriot
p7481
I5904
sV114
p7482
I6331
sVdeclarations
p7483
I6753
sVbarring
p7484
I6062
sVbankrolling
p7485
I7593
sVfried
p7486
I6022
sVetc.
p7487
I3731
sVcalled
p7488
I175
sVmediation
p7489
I5704
sVassociated
p7490
I962
sVcoordinator
p7491
I4097
sVassociates
p7492
I3883
sVrally
p7493
I1715
sVgraham
p7494
I3467
sVtone
p7495
I3666
sVevils
p7496
I7062
sVpeace
p7497
I347
sVbacks
p7498
I4328
sVfasulo
p7499
I7826
sVteams
p7500
I764
sVnick
p7501
I3685
sVnice
p7502
I2754
sVdale
p7503
I5124
sVproblems
p7504
I662
sVbreasts
p7505
I6711
sVmedina
p7506
I6351
sVreplace
p7507
I2270
sVmeaning
p7508
I2138
sVtomcats
p7509
I7767
sVallowing
p7510
I1907
sVsuffers
p7511
I5777
sVvice
p7512
I838
sVattacking
p7513
I3822
sVnasa
p7514
I3494
sVhumvee
p7515
I7118
sVjoining
p7516
I2874
sVonce
p7517
I440
sVmelvern
p7518
I7954
sVissued
p7519
I1070
sVresistance
p7520
I2443
sVsteve
p7521
I1829
sVreferencing
p7522
I7314
sVcontributions
p7523
I2972
sVissues
p7524
I608
sVvenerated
p7525
I7197
sVleung
p7526
I6775
sVdisposal
p7527
I5531
sVshanghai
p7528
I2059
sVdissidents
p7529
I5393
sVstable
p7530
I2930
sVinclude
p7531
I486
sVsniper
p7532
I6040
sVdandy
p7533
I7176
sVconfirmation
p7534
I4425
sVseized
p7535
I2258
sVbarzan
p7536
I7408
sVwishes
p7537
I4811
sVdrinking
p7538
I3477
sVal-faisal
p7539
I7998
sVbryant
p7540
I4251
sVpaternity
p7541
I7119
sVnotes
p7542
I2008
sVdeals
p7543
I2651
sV?
p7544
I188
sVdealt
p7545
I4378
sVunderscored
p7546
I6153
sVsettlers
p7547
I3671
sVnoted
p7548
I1076
sVconcluded
p7549
I2616
sVwrestling
p7550
I3932
sVsensation
p7551
I6220
sVeuphrates
p7552
I7075
sVtraveling
p7553
I3179
sVreunion
p7554
I5565
sVacid
p7555
I4374
sVflagship
p7556
I5519
sVappeased
p7557
I7613
sVconcessions
p7558
I4525
sVlabeled
p7559
I5475
sVnetworks
p7560
I2560
sV19th
p7561
I2728
sVgubernatorial
p7562
I6295
sVcapital
p7563
I349
sVammunition
p7564
I4468
sVranjha
p7565
I7865
sVnazis
p7566
I5161
sVimpact
p7567
I1381
sVchose
p7568
I3049
sVdegree
p7569
I1636
sVpushing
p7570
I2888
sVslated
p7571
I5231
sVyoungest
p7572
I4122
sVtarred
p7573
I7555
sVmetro
p7574
I4027
sVlarger
p7575
I1676
sVleaving
p7576
I1186
sVsuggests
p7577
I3038
sVpayoffs
p7578
I7082
sVu.k.
p7579
I5007
sVspy
p7580
I3989
sVegypt
p7581
I1532
sVmotor
p7582
I2564
sVapply
p7583
I3066
sVtrump
p7584
I6010
sVfed
p7585
I1831
sVlottery
p7586
I5194
sVstream
p7587
I4096
sVconsumption
p7588
I3465
sV&
p7589
I1128
sVusn
p7590
I7556
sVgerm
p7591
I6829
sVfew
p7592
I304
sVuss
p7593
I4751
sVpossession
p7594
I3638
sVparliament
p7595
I659
sVjournalists
p7596
I1942
sVheir
p7597
I5331
sVrecount
p7598
I5784
sVwomen
p7599
I265
sVtopic
p7600
I4625
sVashcroft
p7601
I5742
sVhigh-end
p7602
I7232
sVanywhere
p7603
I3750
sVproof
p7604
I3573
sVarafat
p7605
I1653
sVpatrol
p7606
I3037
sVtax
p7607
I684
sVsomething
p7608
I638
sVserial
p7609
I5030
sVrape
p7610
I3811
sVsir
p7611
I2467
sVunited
p7612
I104
sVsyndrome
p7613
I4705
sVsit
p7614
I2815
sVhandover
p7615
I5937
sVsix
p7616
I227
sVunquestionably
p7617
I7237
sVinstead
p7618
I762
sVstruggled
p7619
I3441
sVbanned
p7620
I2328
sVswedish
p7621
I2542
sVmaternal
p7622
I6290
sVattend
p7623
I1933
sVmasks
p7624
I5896
sVperjury
p7625
I6654
sVabuse
p7626
I2263
sVethnic
p7627
I1367
sVtahrir
p7628
I7409
sVrichland
p7629
I7313
sVmartins
p7630
I6851
sVlight
p7631
I877
sVsix-year
p7632
I7279
sVtenure
p7633
I4295
sVpreparing
p7634
I2898
sV130
p7635
I4314
sVlooks
p7636
I2011
sVtyrant
p7637
I7054
sVinterpreter
p7638
I6301
sVboosts
p7639
I6740
sVsuperior
p7640
I3838
sVassurances
p7641
I5627
sVships
p7642
I2172
sVchoose
p7643
I2704
sVinspecting
p7644
I6877
sVorange
p7645
I2841
sVcovered
p7646
I1897
sVholiday
p7647
I2165
sVdefining
p7648
I5767
sVpending
p7649
I3604
sVviolating
p7650
I4867
sVcrash
p7651
I1891
sVpractice
p7652
I1239
sVflew
p7653
I3195
sVnegligent
p7654
I6950
sVferguson
p7655
I4614
sVambition
p7656
I5959
sVsatellites
p7657
I5392
sVrepublican
p7658
I732
sVflee
p7659
I4543
sVfled
p7660
I2495
sVsuccessor
p7661
I3334
sVarticles
p7662
I3082
sVenviable
p7663
I7365
sVeased
p7664
I4962
sVunpredictable
p7665
I6418
sVrockets
p7666
I3318
sVbills
p7667
I2613
sVgunshot
p7668
I6551
sVstudios
p7669
I3544
sVsukma
p7670
I7771
sVrelated
p7671
I1079
sVdoubled
p7672
I4171
sVour
p7673
I162
sV80
p7674
I1572
sVfirefights
p7675
I7489
sVramadan
p7676
I5786
sV87
p7677
I4732
sVout
p7678
I66
sVtabloid
p7679
I5972
sVchaos
p7680
I4074
sVsupports
p7681
I3242
sVlt.
p7682
I3781
sVdisclose
p7683
I4923
sVaverted
p7684
I6843
sVmaintains
p7685
I4288
sVyork
p7686
I196
sVconflicts
p7687
I3844
sVphilip
p7688
I3313
sVarchaeologist
p7689
I6813
sVcomrade
p7690
I6959
sVcrashed
p7691
I3208
sVconversation
p7692
I3615
sVbirthday
p7693
I3486
sVltd
p7694
I5349
sVhence
p7695
I4719
sV12-year
p7696
I5753
sVrafiq
p7697
I7014
sVprobation
p7698
I5681
sVnoticed
p7699
I4518
sVendgame
p7700
I7277
sVdestinations
p7701
I5265
sVpublication
p7702
I3004
sVunknown
p7703
I2658
sVinmate
p7704
I6151
sVtheir
p7705
I44
sV1500
p7706
I5954
sVbadness
p7707
I7831
sVprecipitously
p7708
I7485
sVshell
p7709
I3325
sVebbers
p7710
I7156
sVregards
p7711
I5762
sVjuly
p7712
I373
sVinstitution
p7713
I2965
sVhearings
p7714
I4024
sVholland
p7715
I4909
sVgeoff
p7716
I6271
sVtommy
p7717
I4258
sVpatients
p7718
I1546
sVcreditors
p7719
I5284
sV1.4
p7720
I4293
sV1.5
p7721
I2818
sV1.0
p7722
I6216
sV1.1
p7723
I4346
sV1.2
p7724
I3644
sV1.3
p7725
I3958
sV1.8
p7726
I4503
sVteenagers
p7727
I5273
sVunelected
p7728
I7203
sVblix
p7729
I6454
sVlinked
p7730
I1906
sVcatholic
p7731
I1475
sVafraid
p7732
I3796
sVrussians
p7733
I3652
sVrout
p7734
I6439
sVagency
p7735
I427
sVwhich
p7736
I42
sVdivert
p7737
I6560
sVmartha
p7738
I5092
sV=
p7739
I1188
sVberated
p7740
I7440
sVcombat
p7741
I1950
sVcentre
p7742
I1385
sVwho
p7743
I38
sVaccountants
p7744
I6735
sVcracking
p7745
I6255
sVwhy
p7746
I728
sVstatute
p7747
I5298
sVdeny
p7748
I4100
sVneighboring
p7749
I2624
sVlooked
p7750
I1712
sVall-out
p7751
I7637
sVgain
p7752
I1791
sVchances
p7753
I2518
sVplease
p7754
I3272
sVagreed
p7755
I727
sVpurely
p7756
I5582
sVplanning
p7757
I1492
sVdemocrats
p7758
I1035
sVfear
p7759
I1582
sVdebate
p7760
I1372
sVlitigation
p7761
I5434
sVbottling
p7762
I7023
sVunanimously
p7763
I5278
sVex-mayor
p7764
I7959
sVexacerbating
p7765
I7361
sVoperational
p7766
I3994
sVcandidates
p7767
I1347
sVthousands
p7768
I852
sVplazas
p7769
I7351
sVprosecute
p7770
I6043
sVsued
p7771
I4636
sVtopple
p7772
I6074
sVwatching
p7773
I2422
sVsilas
p7774
I7152
sVmassacre
p7775
I3928
sVones
p7776
I1887
sVwords
p7777
I1329
sVcoordinating
p7778
I5923
sVhomosexuals
p7779
I6650
sVended
p7780
I827
sVmarried
p7781
I1134
sVmoo-hyun
p7782
I7938
sVaffluent
p7783
I6321
sVretook
p7784
I7273
sVjenning
p7785
I7944
sVview
p7786
I1106
sVavailable
p7787
I767
sVacquired
p7788
I2534
sVunfairly
p7789
I6422
sVcloser
p7790
I2215
sVstill
p7791
I149
sVcloset
p7792
I6448
sVarguably
p7793
I6102
sVfavor
p7794
I2347
sVclosed
p7795
I708
sVstories
p7796
I1498
sVbought
p7797
I1690
sVweighing
p7798
I5589
sVability
p7799
I1584
sVopening
p7800
I858
sVjoy
p7801
I4488
sVrescuers
p7802
I5175
sVagencies
p7803
I1755
sVjob
p7804
I655
sVtakeover
p7805
I3584
sVpunishable
p7806
I6749
sVjoe
p7807
I1873
sV200,000
p7808
I3797
sVswift
p7809
I4770
sVdeclining
p7810
I4104
sVkarzai
p7811
I3855
sVapril
p7812
I394
sV11-year-old
p7813
I7746
sVauctions
p7814
I6507
sVtactical
p7815
I5431
sVsafely
p7816
I4947
sVsorties
p7817
I7012
sVgrounds
p7818
I2835
sVunclear
p7819
I3180
sVwall
p7820
I990
sVwalk
p7821
I2214
sVwalt
p7822
I5184
sVrespect
p7823
I1872
sVwithdrawn
p7824
I4851
sVprovinces
p7825
I2908
sVi.e.
p7826
I4262
sVnine-story
p7827
I7920
sVhunters
p7828
I5783
sVtrademark
p7829
I5091
sVwindow
p7830
I3019
sVagreements
p7831
I2846
sVmike
p7832
I1524
sVliverpool
p7833
I3169
sVverizon
p7834
I6291
sVsufficient
p7835
I3878
sVthrusting
p7836
I7493
sVscrutiny
p7837
I4854
sVimproved
p7838
I2171
sVoverturn
p7839
I6415
sVpresent
p7840
I920
sVabandoned
p7841
I2830
sVunlike
p7842
I2416
sVrestaurant
p7843
I2354
sVwill
p7844
I43
sVstunning
p7845
I5020
sVapprehend
p7846
I7202
sVthus
p7847
I1516
sVavs
p7848
I7473
sVdraining
p7849
I6807
sVavi
p7850
I7114
sVsmuggle
p7851
I6677
sVperhaps
p7852
I1415
sVvintage
p7853
I5722
sVradiation
p7854
I4715
sVcross
p7855
I983
sVmember
p7856
I391
sVlargest
p7857
I504
sVunits
p7858
I1443
sVgets
p7859
I1592
sVdifficult
p7860
I988
sVyoon
p7861
I6865
sVdiego
p7862
I2525
sVdisagree
p7863
I5895
sVmutual
p7864
I2732
sVromeo
p7865
I6552
sVstudent
p7866
I1245
sVlobby
p7867
I4691
sVwarming
p7868
I3929
sVbrigadier
p7869
I6066
sVcorrespondent
p7870
I4426
sVapprove
p7871
I3798
sVfighting
p7872
I785
sVtheses
p7873
I7402
sVenglish
p7874
I702
sVinc.
p7875
I721
sVexcessive
p7876
I4656
sVrocket
p7877
I2723
sVheavily
p7878
I2110
sVbatteries
p7879
I5395
sVfishing
p7880
I2817
sVrocked
p7881
I5418
sVpeoplesoft
p7882
I7196
sVrapid
p7883
I3055
sVserbs
p7884
I2127
sVsupply
p7885
I1573
sVsky
p7886
I3058
sVdiscuss
p7887
I1414
sVarresting
p7888
I6336
sVbook
p7889
I537
sVattractive
p7890
I4016
sVsparking
p7891
I5947
sVunprecedented
p7892
I3786
sVidentical
p7893
I4807
sVbranch
p7894
I2269
sVmyth
p7895
I5815
sVprotesters
p7896
I2325
sVbettman
p7897
I7115
sVmasih
p7898
I7698
sVcommunity
p7899
I499
sVknot
p7900
I6779
sVpress
p7901
I426
sVanti-terrorism
p7902
I7703
sVhelpful
p7903
I5398
sVmiami
p7904
I2018
sVloser
p7905
I6006
sVloses
p7906
I5019
sVbacklash
p7907
I6046
sVjanuary
p7908
I448
sVbecause
p7909
I113
sVsmoothly
p7910
I5973
sVcasteen
p7911
I7922
sVsearching
p7912
I3810
sVplatforms
p7913
I5080
sVshinrikyo
p7914
I7618
sVempire
p7915
I2355
sVdisrupting
p7916
I6710
sVjeremy
p7917
I5211
sVlead
p7918
I408
sVmines
p7919
I3524
sVbosses
p7920
I5995
sVleader
p7921
I327
sVlocate
p7922
I5934
sVripped
p7923
I5406
sVmurderer
p7924
I6447
sVmurdered
p7925
I4463
sVthrone
p7926
I4835
sVrare
p7927
I2181
sVcarried
p7928
I1202
sVextension
p7929
I3234
sVgetting
p7930
I862
sVcolumn
p7931
I2868
sVshipping
p7932
I3736
sVsurge
p7933
I3566
sVperks
p7934
I6870
sVcarrier
p7935
I3043
sVpresidium
p7936
I7211
sVfatally
p7937
I6404
sVsuharto
p7938
I5249
sVown
p7939
I260
sVceos
p7940
I6861
sVowe
p7941
I6409
sVtravelers
p7942
I4185
sVpossessions
p7943
I6300
sVweather
p7944
I1550
sVpromise
p7945
I2931
sVregistration
p7946
I4491
sVyanked
p7947
I7139
sVsignificantly
p7948
I3079
sViron-clad
p7949
I7981
sVconvicted
p7950
I2002
sVdecriminalised
p7951
I7843
sVvan
p7952
I1406
sVunpatriotic
p7953
I7546
sVartifacts
p7954
I5713
sVtransfer
p7955
I2226
sVminster
p7956
I7140
sVintention
p7957
I3632
sVed
p7958
I3595
sVtriggered
p7959
I3763
sVfunds
p7960
I1073
sVdefames
p7961
I7906
sVbradley
p7962
I4118
sVmade
p7963
I116
sVtactics
p7964
I4011
sVwhether
p7965
I399
sVprotesting
p7966
I5368
sVrecord
p7967
I382
sVbelow
p7968
I1232
sVruling
p7969
I1050
sVdemonstrate
p7970
I4464
sVhorrific
p7971
I6556
sVinadequate
p7972
I5429
sVresumption
p7973
I5200
sVhappen
p7974
I1830
sVsympathizers
p7975
I6886
sVdiplomat
p7976
I3104
sV'll
p7977
I758
sV300th
p7978
I7355
sVincredible
p7979
I5089
sVcountermeasure
p7980
I7702
sVyarmuk
p7981
I7682
sVpercent
p7982
I72
sVillinois
p7983
I2609
sVother
p7984
I68
sVboom
p7985
I3819
sVsick
p7986
I3686
sVkurds
p7987
I4845
sVincredibly
p7988
I6038
sVchatted
p7989
I7041
sVconclusion
p7990
I3688
sVlance
p7991
I5244
sVillegally
p7992
I4048
sVkinds
p7993
I3755
sVjune
p7994
I342
sVmargaret
p7995
I4212
sVcommandos
p7996
I6264
sV4.20
p7997
I7524
sVorha
p7998
I7850
sVranks
p7999
I3262
sVirony
p8000
I6452
s.