(dp0
Vbarrages
p1
I1
sV1,7
p2
I2
sVyellow
p3
I3
sVnarcotic
p4
I4
sVfour
p5
I5
sVjihad
p6
I6
sVaggression
p7
I7
sVmarching
p8
I8
sVincrease
p9
I9
sVshura
p10
I10
sVelectricity
p11
I11
sVhordes
p12
I12
sVunanswered
p13
I13
sVillegally
p14
I14
sVhacked
p15
I15
sVregional
p16
I16
sVstipulate
p17
I17
sVmalfunctioned
p18
I18
sVfur
p19
I19
sVstabbed
p20
I20
sVbringing
p21
I21
sVprize
p22
I22
sVandre
p23
I23
sVwednesday
p24
I24
sVhague
p25
I25
sVsuccession
p26
I26
sVcommented
p27
I27
sVseven-
p28
I28
sVe-
p29
I29
sVcharter
p30
I30
sV933-4968
p31
I31
sVmiller
p32
I32
sVelections
p33
I33
sVsecond
p34
I34
sVsailed
p35
I35
sVbehe
p36
I36
sVerrors
p37
I37
sVthunder
p38
I38
sVwarmongering
p39
I39
sVhostile
p40
I40
sVdatabank
p41
I41
sVpapandreou
p42
I42
sVhero
p43
I43
sVavert
p44
I44
sVreporter
p45
I45
sVreasons-
p46
I46
sVal-salhiya
p47
I47
sVhere
p48
I48
sVreported
p49
I49
sVchina
p50
I50
sVcult
p51
I51
sVkids
p52
I52
sVclimbed
p53
I53
sVreports
p54
I54
sVcontroversy
p55
I55
sVmilitary
p56
I56
sVjianchao
p57
I57
sVkido
p58
I58
sVcriticism
p59
I59
sVgolden
p60
I60
sVdivide
p61
I61
sVmagically
p62
I62
sVmota
p63
I63
sVexplained
p64
I64
sVhamas
p65
I65
sVbrought
p66
I66
sVhamad
p67
I67
sVunit
p68
I68
sVopponents
p69
I69
sVdna
p70
I70
sVspoke
p71
I71
sVoccupying
p72
I72
sVramstein
p73
I73
sVmusic
p74
I74
sVtherefore
p75
I75
sVstrike
p76
I76
sVuntil
p77
I77
sV30-foot
p78
I78
sVpaperwork
p79
I79
sVholy
p80
I80
sVrelax
p81
I81
sVsuccessful
p82
I82
sVbrings
p83
I83
sVyahoo
p84
I84
sVhurt
p85
I85
sVglass
p86
I86
sV5.15
p87
I87
sVmidst
p88
I88
sVhold
p89
I89
sV10-month
p90
I90
sVcircumstances
p91
I91
sVlocked
p92
I92
sVpursue
p93
I93
sVfamed
p94
I94
sVplunged
p95
I95
sVablying
p96
I96
sVbattlefront
p97
I97
sVexample
p98
I98
sVmelony
p99
I99
sVunjust
p100
I100
sVartillery
p101
I101
sVorganized
p102
I102
sVshort-notice
p103
I103
sVcurrency
p104
I104
sVcaution
p105
I105
sVreviewing
p106
I106
sVwant
p107
I107
sVcomplaining
p108
I108
sVtravel
p109
I109
sVdamage
p110
I110
sVmachine
p111
I111
sVhow
p112
I112
sVhot
p113
I113
sVhop
p114
I114
sVindustrialised
p115
I115
sVshores
p116
I116
sVwrong
p117
I117
sVtypes
p118
I118
sVeffective
p119
I119
sVwins
p120
I120
sVyouths
p121
I121
sVheadquarters
p122
I122
sVsickening
p123
I123
sVcigarettes
p124
I124
sV18th
p125
I125
sVkeeps
p126
I126
sVdemocratic
p127
I127
sVnonsensical
p128
I128
sVwing
p129
I129
sVdisengaging
p130
I130
sVstockpiled
p131
I131
sVsenators
p132
I132
sVsistani
p133
I133
sVconfederate
p134
I134
sVbarclays
p135
I135
sVstockpiles
p136
I136
sVrewarded
p137
I137
sVconned
p138
I138
sVauditors
p139
I139
sVsurvivors
p140
I140
sVwales
p141
I141
sVeasier
p142
I142
sVwoods
p143
I143
sVeffects
p144
I144
sVschools
p145
I145
sVsilver
p146
I146
sVwhitman
p147
I147
sVrepresents
p148
I148
sVm-16s
p149
I149
sVarmoured
p150
I150
sV4-year-old
p151
I151
sVfi-
p152
I152
sVexpectancy
p153
I153
sVpreceded
p154
I154
sVfinancial
p155
I155
sVseries
p156
I156
sV250,000
p157
I157
sVblinder
p158
I158
sV.and
p159
I159
sV2,500
p160
I160
sVsubstantially
p161
I161
sVlaboratory
p162
I162
sVtruman
p163
I163
sVmessage
p164
I164
sVnaotia
p165
I165
sVsix-hour
p166
I166
sVoprah
p167
I167
sVgeorge
p168
I168
sVre
p169
I169
sVencourage
p170
I170
sVdonahue
p171
I171
sVgeorhge
p172
I172
sVengineer
p173
I173
sVri
p174
I174
sVtennessean
p175
I175
sVfoundation
p176
I176
sVneedier
p177
I177
sVassured
p178
I178
sVcanaveral
p179
I179
sVthreatened
p180
I180
sVfugitive
p181
I181
sVencountering
p182
I182
sVgrapes
p183
I183
sVestimate
p184
I184
sVwedeman
p185
I185
sVate
p186
I186
sVministries
p187
I187
sVreprimanded
p188
I188
sVmusicians
p189
I189
sVrepealed
p190
I190
sVstate-run
p191
I191
sVreintroduced
p192
I192
sVbitten
p193
I193
sVnurul
p194
I194
sVbasketball
p195
I195
sVservice
p196
I196
sVlawsuits
p197
I197
sVengagement
p198
I198
sVstack
p199
I199
sVneeded
p200
I200
sVmaster
p201
I201
sVlisted
p202
I202
sVlegs
p203
I203
sVbitter
p204
I204
sVlisten
p205
I205
sVrewards
p206
I206
sVgeneva
p207
I207
sVconvention
p208
I208
sVmotionless
p209
I209
sVmutilated
p210
I210
sVlyndon
p211
I211
sVahmed
p212
I212
sVshowed
p213
I213
sVsaeed
p214
I214
sVtree
p215
I215
sVrusty
p216
I216
sVnations
p217
I217
sVproject
p218
I218
sVendure
p219
I219
sVseven-month
p220
I220
sVfeeling
p221
I221
sVacquisition
p222
I222
sVunintended
p223
I223
sVboston
p224
I224
sVlongo
p225
I225
sVdozen
p226
I226
sVaffairs
p227
I227
sVresponsible
p228
I228
sVrecommended
p229
I229
sVcausing
p230
I230
sVashters
p231
I231
sVlayoffs
p232
I232
sVkremlin
p233
I233
sVshipments
p234
I234
sVcommitting
p235
I235
sVshall
p236
I236
sVobject
p237
I237
sVdiminishing
p238
I238
sVlooming
p239
I239
sVvictoria
p240
I240
sVswiss
p241
I241
sVhushing
p242
I242
sVfixed-wing
p243
I243
sVletter
p244
I244
sVentry
p245
I245
sVdrought
p246
I246
sVsinger
p247
I247
sVwarnerings
p248
I248
sVcops
p249
I249
sVprofessor
p250
I250
sVcamp
p251
I251
sV17,000-strong
p252
I252
sVcame
p253
I253
sVsaying
p254
I254
sVbomb
p255
I255
sVreactor
p256
I256
sVmeetings
p257
I257
sVone-year
p258
I258
sVqaeda
p259
I259
sVparticipate
p260
I260
sVlethal
p261
I261
sVtempted
p262
I262
sVbusy
p263
I263
sVskirmishes
p264
I264
sVheadline
p265
I265
sVcousins
p266
I266
sVbonuses
p267
I267
sVtheme
p268
I268
sVbliss
p269
I269
sVrice
p270
I270
sVlady
p271
I271
sVplata
p272
I272
sVumbilical
p273
I273
sVpsychiatric
p274
I274
sVpocket
p275
I275
sVcushion
p276
I276
sVmilitiamen
p277
I277
sVthree-year
p278
I278
sVsaud
p279
I279
sVrelease
p280
I280
sVbashar
p281
I281
sVisreal
p282
I282
sVrespond
p283
I283
sVblew
p284
I284
sVmandatory
p285
I285
sVdisaster
p286
I286
sVfair
p287
I287
sVrecruit
p288
I288
sVresult
p289
I289
sVfail
p290
I290
sVresigned
p291
I291
sVhammer
p292
I292
sVbest
p293
I293
sVambitions
p294
I294
sVlots
p295
I295
sVirs
p296
I296
sVdroves
p297
I297
sVargu-
p298
I298
sVpreserve
p299
I299
sVwage
p300
I300
sVnever
p301
I301
sVnationwide
p302
I302
sVnature
p303
I303
sVrolled
p304
I304
sVextent
p305
I305
sVdebt
p306
I306
sVqalqiliya
p307
I307
sVaccident
p308
I308
sVbrown
p309
I309
sVcountry
p310
I310
sVpitt
p311
I311
sVu.n.-convened
p312
I312
sVplanned
p313
I313
sVargue
p314
I314
sVasked
p315
I315
sVsa-2s
p316
I316
sVtareq
p317
I317
sV2nd
p318
I318
sVblending
p319
I319
sVunion
p320
I320
sVkhaled
p321
I321
sV.
p322
I322
sVmuch
p323
I323
sVresupply
p324
I324
sVincompetent
p325
I325
sVlife
p326
I326
sVeastern
p327
I327
sVqusai
p328
I328
sVfilmmaker
p329
I329
sVmoneys
p330
I330
sVomnimedia
p331
I331
sVchild
p332
I332
sVworked
p333
I333
sVchill
p334
I334
sVcommerce
p335
I335
sVpresidency
p336
I336
sVemploy
p337
I337
sVappeals
p338
I338
sVgerhard
p339
I339
sVflooding
p340
I340
sVridiculously
p341
I341
sVstep-down
p342
I342
sVuday
p343
I343
sVplayer
p344
I344
sVeighteen
p345
I345
sVupscale
p346
I346
sVkuwaitis
p347
I347
sVcampaigning
p348
I348
sVhong
p349
I349
sVthings
p350
I350
sVtelecinco
p351
I351
sVdemocracies
p352
I352
sVbabies
p353
I353
sVbid
p354
I354
sVeuropean
p355
I355
sVmarched
p356
I356
sVkiichiro
p357
I357
sVownership
p358
I358
sVechoed
p359
I359
sVfanatically
p360
I360
sVby-elections
p361
I361
sVcorporate
p362
I362
sVopinions
p363
I363
sVcapitol
p364
I364
sVdistribute
p365
I365
sVbirmingham
p366
I366
sVplight
p367
I367
sVentrenched
p368
I368
sVprevious
p369
I369
sVfatah
p370
I370
sVinformtive
p371
I371
sVhad
p372
I372
sVanbar
p373
I373
sVkearn
p374
I374
sVinnocent
p375
I375
sVprison
p376
I376
sVarab-language
p377
I377
sVhas
p378
I378
sVhat
p379
I379
sV13-month-old
p380
I380
sVcasually
p381
I381
sVsurvival
p382
I382
sVposed
p383
I383
sVpossible
p384
I384
sVpossibly
p385
I385
sVbirth
p386
I386
sVunique
p387
I387
sV6:03
p388
I388
sVdesire
p389
I389
sVcounty
p390
I390
sVha-
p391
I391
sVremind
p392
I392
sVfestivities
p393
I393
sVsteps
p394
I394
sVbattlefield
p395
I395
sVattorney
p396
I396
sVright
p397
I397
sVold
p398
I398
sVole
p399
I399
sVcrowd
p400
I400
sVpeople
p401
I401
sVbillboard
p402
I402
sVfor
p403
I403
sVbottom
p404
I404
sVhulks
p405
I405
sVfox
p406
I406
sVp.m.
p407
I407
sVfoe
p408
I408
sVindividuals
p409
I409
sV287,490
p410
I410
sVfrum
p411
I411
sVpondered
p412
I412
sVumm
p413
I413
sVlebabon
p414
I414
sVsubstitutes
p415
I415
sVannan
p416
I416
sV24-hour
p417
I417
sV6,000
p418
I418
sVbrigades
p419
I419
sVdefensive
p420
I420
sVlosing
p421
I421
sVbrokerage
p422
I422
sVdollars
p423
I423
sVcitizens
p424
I424
sVkilgore
p425
I425
sVpalestinians
p426
I426
sVrebut
p427
I427
sVnixon
p428
I428
sVhulking
p429
I429
sVraised
p430
I430
sVstatements
p431
I431
sVfacility
p432
I432
sVmarshall
p433
I433
sVson
p434
I434
sVraises
p435
I435
sVattrition
p436
I436
sVwaitt
p437
I437
sVinjecters
p438
I438
sVsupport
p439
I439
sVraped
p440
I440
sVjoseph
p441
I441
sVrapes
p442
I442
sVtele
p443
I443
sVlaunching
p444
I444
sVhappy
p445
I445
sVinsurrection
p446
I446
sVteeterman
p447
I447
sVoffer
p448
I448
sVforming
p449
I449
sVstate-regulated
p450
I450
sVso-
p451
I451
sVtalents
p452
I452
sVincorporation
p453
I453
sVnov.
p454
I454
sVhumbled
p455
I455
sVinside
p456
I456
sV10-15k
p457
I457
sVdevices
p458
I458
sVtorturing
p459
I459
sVsmashed
p460
I460
sVdues
p461
I461
sVlater
p462
I462
sVdisgrace
p463
I463
sVtournament
p464
I464
sVproven
p465
I465
sV''
p466
I466
sVproves
p467
I467
sVwhites
p468
I468
sVnegotiations
p469
I469
sVposting
p470
I470
sVmelanoma
p471
I471
sVfloor
p472
I472
sVrole
p473
I473
sVprotester
p474
I474
sVdevelopers
p475
I475
sVroll
p476
I476
sVramadi
p477
I477
sV's
p478
I478
sVmodels
p479
I479
sVcarville
p480
I480
sVtransported
p481
I481
sVmuslims
p482
I482
sVintent
p483
I483
sVrolling
p484
I484
sV'm
p485
I485
sVexplosions
p486
I486
sVshootout
p487
I487
sVspades
p488
I488
sVpackets
p489
I489
sVercument
p490
I490
sVtime
p491
I491
sVpush
p492
I492
sVbanners
p493
I493
sVdecision
p494
I494
sVchain
p495
I495
sVwhoever
p496
I496
sVosu
p497
I497
sVcrocodile
p498
I498
sVjust-
p499
I499
sVchair
p500
I500
sVdavao
p501
I501
sVcompetition
p502
I502
sVadnan
p503
I503
sVveterans
p504
I504
sVself-dealing
p505
I505
sVminuts
p506
I506
sVtwo-way
p507
I507
sVspate
p508
I508
sVchoice
p509
I509
sVembark
p510
I510
sVstays
p511
I511
sVmultistory
p512
I512
sVrosacker
p513
I513
sVreining
p514
I514
sVisraeli-intelligence
p515
I515
sVleave
p516
I516
sVsettle
p517
I517
sVsubway
p518
I518
sVteam
p519
I519
sVspeculation
p520
I520
sVprevent
p521
I521
sVspiritual
p522
I522
sVfindings
p523
I523
sVsigh
p524
I524
sVsign
p525
I525
sVchopping
p526
I526
sVcrescent
p527
I527
sVabdullah
p528
I528
sVcurrent
p529
I529
sVfalling
p530
I530
sVground
p531
I531
sVgoodenow
p532
I532
sVdrafted
p533
I533
sVjury
p534
I534
sVgrandparents
p535
I535
sVfuneral
p536
I536
sVunderstanding
p537
I537
sVaddress
p538
I538
sValone
p539
I539
sValong
p540
I540
sVpassengers
p541
I541
sVredemption
p542
I542
sVfunded
p543
I543
sVmyers
p544
I544
sVstudies
p545
I545
sVnowhere
p546
I546
sVlove
p547
I547
sVprefer
p548
I548
sVbloody
p549
I549
sVips
p550
I550
sVbetraying
p551
I551
sVfake
p552
I552
sVforefront
p553
I553
sVcarol
p554
I554
sVopposes
p555
I555
sVworking
p556
I556
sVpositive
p557
I557
sVangry
p558
I558
sV`the
p559
I559
sVcrystalized
p560
I560
sVopposed
p561
I561
sVwondering
p562
I562
sVscope
p563
I563
sVsyrians
p564
I564
sVresuscitation
p565
I565
sVprosecutor
p566
I566
sV``
p567
I567
sVafford
p568
I568
sVapparent
p569
I569
sVvalidity
p570
I570
sVapproving
p571
I571
sVeverywhere
p572
I572
sVdegrade
p573
I573
sVchoft
p574
I574
sVnasiriyah
p575
I575
sVpower-sharing
p576
I576
sVbehalf
p577
I577
sVtobacco
p578
I578
sVvalued
p579
I579
sVoriginally
p580
I580
sVabortion
p581
I581
sVbelieves
p582
I582
sVbelieved
p583
I583
sVhengfeng
p584
I584
sVgunfire
p585
I585
sVadmired
p586
I586
sVparachute
p587
I587
sVallowed
p588
I588
sVstole
p589
I589
sVevidently
p590
I590
sVmonitoring
p591
I591
sVwinter
p592
I592
sVdivided
p593
I593
sVpoking
p594
I594
sVs-
p595
I595
sVdivides
p596
I596
sVsamuel
p597
I597
sVlandmark
p598
I598
sVrigors
p599
I599
sVslush
p600
I600
sVfalluja
p601
I601
sVfueled
p602
I602
sVdate
p603
I603
sVsuch
p604
I604
sVrevealed
p605
I605
sVdisagreeable
p606
I606
sVstress
p607
I607
sVnatural
p608
I608
sVsectors
p609
I609
sVsr
p610
I610
sVwheelchair
p611
I611
sVsw
p612
I612
sVso
p613
I613
sVswollen
p614
I614
sVpulled
p615
I615
sVse
p616
I616
sV*wanting*
p617
I617
sVdrunken
p618
I618
sVunsolicited
p619
I619
sVbush
p620
I620
sVinsurgency
p621
I621
sVunacceptable
p622
I622
sVyears
p623
I623
sVcourse
p624
I624
sVepisodes
p625
I625
sVomitting
p626
I626
sVtore
p627
I627
sVbet`fow
p628
I628
sVderive
p629
I629
sVtorn
p630
I630
sVtroubles
p631
I631
sVlouisville
p632
I632
sVaviv
p633
I633
sVcovertly
p634
I634
sVsuspicion
p635
I635
sVsuspension
p636
I636
sVtroubled
p637
I637
sVdecades
p638
I638
sVparades
p639
I639
sVrecipients
p640
I640
sVcivilian
p641
I641
sVnation
p642
I642
sVrecords
p643
I643
sVarriving
p644
I644
sVin-laws
p645
I645
sVsubordinated
p646
I646
sVfla
p647
I647
sVshouted
p648
I648
sVrevert
p649
I649
sVestablishing
p650
I650
sVdaschle
p651
I651
sVrepaired
p652
I652
sVquartet
p653
I653
sVsquare
p654
I654
sVbloglines
p655
I655
sVpeacekeepers
p656
I656
sVirina
p657
I657
sVbreakthrough
p658
I658
sVentering
p659
I659
sVsexually
p660
I660
sVpresaged
p661
I661
sVcontainer
p662
I662
sV@
p663
I663
sVseriously
p664
I664
sVinvestigation
p665
I665
sVtrauma
p666
I666
sVsuggesting
p667
I667
sVmacedon
p668
I668
sVgazpromgeocomservice
p669
I669
sVdisintegrated
p670
I670
sVsiege
p671
I671
sVmillion
p672
I672
sVseventh
p673
I673
sVpossibility
p674
I674
sVquite
p675
I675
sVlucrative
p676
I676
sVbesides
p677
I677
sVanchor
p678
I678
sVspan
p679
I679
sVremainder
p680
I680
sVseventy
p681
I681
sVtraining
p682
I682
sVlocations
p683
I683
sVprogramming
p684
I684
sVp.o.w.s
p685
I685
sVrouted
p686
I686
sVinitiate
p687
I687
sVmassive
p688
I688
sVthurmond
p689
I689
sVroutes
p690
I690
sVrumsfeld
p691
I691
sVgunshot
p692
I692
sVhotels
p693
I693
sVsaving
p694
I694
sVspoken
p695
I695
sVpotter
p696
I696
sVone
p697
I697
sVfund-raiser
p698
I698
sVsubmit
p699
I699
sVspanish
p700
I700
sVvote
p701
I701
sVopen
p702
I702
sVosbourne
p703
I703
sVcity
p704
I704
sVrunways
p705
I705
sVindicate
p706
I706
sVdraft
p707
I707
sVconvene
p708
I708
sVshoppers
p709
I709
sVbits
p710
I710
sVcite
p711
I711
sVwilliams
p712
I712
sVconceierge
p713
I713
sVrepresenting
p714
I714
sVsilvan
p715
I715
sVivanov
p716
I716
sVrival
p717
I717
sVfuture
p718
I718
sVcollege
p719
I719
sVrussia
p720
I720
sVprospect
p721
I721
sVsai
p722
I722
sVillness
p723
I723
sVsan
p724
I724
sVnicer
p725
I725
sVturned
p726
I726
sVargument
p727
I727
sVsad
p728
I728
sVsay
p729
I729
sVrained
p730
I730
sVburied
p731
I731
sVlurking
p732
I732
sVturner
p733
I733
sVsaw
p734
I734
sVsat
p735
I735
sVaside
p736
I736
sVpeacekeeping
p737
I737
sVnote
p738
I738
sVintends
p739
I739
sVtake
p740
I740
sVdestroy
p741
I741
sVcoincide
p742
I742
sVconcern
p743
I743
sVtowers
p744
I744
sVsa-
p745
I745
sVopposite
p746
I746
sVknew
p747
I747
sVbcun
p748
I748
sVremarks
p749
I749
sVfarmlands
p750
I750
sVnonlethal
p751
I751
sVphil
p752
I752
sVinfections
p753
I753
sVdrive
p754
I754
sVdefeating
p755
I755
sVcushioned
p756
I756
sVfederal
p757
I757
sVba'asyir
p758
I758
sVbutchered
p759
I759
sV30,000
p760
I760
sVlaws
p761
I761
sVwalking
p762
I762
sVc-17
p763
I763
sVsurplus
p764
I764
sVscarce
p765
I765
sVaggressive
p766
I766
sV~la
p767
I767
sVslow
p768
I768
sVzahn
p769
I769
sVcloak
p770
I770
sVgoing
p771
I771
sVdancing
p772
I772
sVcaroline
p773
I773
sVrobb
p774
I774
sVdispute
p775
I775
sVmisdemeanor
p776
I776
sVpsychiatrist
p777
I777
sVassistant
p778
I778
sV8:45
p779
I779
sVcursing
p780
I780
sVawaiting
p781
I781
sVprime
p782
I782
sVfaceing
p783
I783
sVresource
p784
I784
sVahmad
p785
I785
sVworried
p786
I786
sVpriest
p787
I787
sVroger
p788
I788
sVbombs
p789
I789
sVworries
p790
I790
sVmarred
p791
I791
sVwhere
p792
I792
sVvision
p793
I793
sVdismatched
p794
I794
sVtop-level
p795
I795
sVsurgery
p796
I796
sVcompounds
p797
I797
sValarming
p798
I798
sVsites
p799
I799
sVun
p800
I800
sVbureau
p801
I801
sVdiddly
p802
I802
sVmurrah
p803
I803
sVuh
p804
I804
sVjobs
p805
I805
sVuk
p806
I806
sVscreen
p807
I807
sVconcentrate
p808
I808
sVawards
p809
I809
sVjets
p810
I810
sVundermine
p811
I811
sVconcentrated
p812
I812
sVoust
p813
I813
sVmany
p814
I814
sVs
p815
I815
sVbardarash
p816
I816
sVloveliest
p817
I817
sVmccain
p818
I818
sVhomosexuality
p819
I819
sVbooby-trapped
p820
I820
sVcokes
p821
I821
sVboat
p822
I822
sVreconcile
p823
I823
sVteddy
p824
I824
sVwest
p825
I825
sVairlines
p826
I826
sVconcede
p827
I827
sVbreath
p828
I828
sVcombined
p829
I829
sVmotives
p830
I830
sVprototype
p831
I831
sVcasue
p832
I832
sVwants
p833
I833
sVlanes
p834
I834
sVunsafe
p835
I835
sVthousand
p836
I836
sVformed
p837
I837
sVwalmart
p838
I838
sVcurbing
p839
I839
sVobserve
p840
I840
sVformer
p841
I841
sVtribal
p842
I842
sVpolls
p843
I843
sVprominence
p844
I844
sVsingle
p845
I845
sVpolicies
p846
I846
sVblackhawk
p847
I847
sVnewspaper
p848
I848
sVsituation
p849
I849
sVendured
p850
I850
sVspotlight
p851
I851
sVgonzalez-robatto
p852
I852
sVjericho
p853
I853
sVengaged
p854
I854
sVtechnology
p855
I855
sVfame
p856
I856
sVmissiles
p857
I857
sVthreatens
p858
I858
sVbreakdown
p859
I859
sVwires
p860
I860
sVedged
p861
I861
sVsingapore
p862
I862
sVboosted
p863
I863
sVreverts
p864
I864
sVsavidge
p865
I865
sVbooster
p866
I866
sVcosts
p867
I867
sVtrains
p868
I868
sVsummer
p869
I869
sVbeing
p870
I870
sVrest
p871
I871
sVdimmed
p872
I872
sVoverconfident
p873
I873
sVinaudible
p874
I874
sVrover
p875
I875
sVkhatami
p876
I876
sVoverthrow
p877
I877
sVskies
p878
I878
sVaspects
p879
I879
sVaround
p880
I880
sVsportsmanship
p881
I881
sVsums
p882
I882
sVdark
p883
I883
sVregigna-
p884
I884
sVsnarl
p885
I885
sVtraffic
p886
I886
sVpreference
p887
I887
sVba'athists
p888
I888
sVauctioneers
p889
I889
sVworld
p890
I890
sVboycotted
p891
I891
sVbravery
p892
I892
sVclan
p893
I893
sVintel
p894
I894
sVtsunami
p895
I895
sVobstruct
p896
I896
sVsuperintendent
p897
I897
sVconditional
p898
I898
sVlebanon
p899
I899
sVmiao
p900
I900
sVbritt
p901
I901
sVwmds
p902
I902
sVperpetrators
p903
I903
sVracial
p904
I904
sVthinks
p905
I905
sVintensifies
p906
I906
sVmemories
p907
I907
sVnoon
p908
I908
sVrefer
p909
I909
sVpower
p910
I910
sVindustrialized
p911
I911
sVleadership
p912
I912
sVthailand
p913
I913
sVstone
p914
I914
sVace
p915
I915
sVpackage
p916
I916
sVindustry
p917
I917
sVmeal
p918
I918
sVneighbor
p919
I919
sVact
p920
I920
sVluck
p921
I921
sVtripura
p922
I922
sVknifing
p923
I923
sVfundraising
p924
I924
sViliescu
p925
I925
sVkurd-controlled
p926
I926
sVhomeless
p927
I927
sVparties
p928
I928
sVbergen
p929
I929
sVtechnically
p930
I930
sVher
p931
I931
sVphiladelphia
p932
I932
sVbedeviled
p933
I933
sVbarzani
p934
I934
sVmindless
p935
I935
sVsealed
p936
I936
sVinnovated
p937
I937
sVlang
p938
I938
sVallah
p939
I939
sVcomplete
p940
I940
sVmourns
p941
I941
sVsaudia
p942
I942
sVsurvived
p943
I943
sVtechnologies
p944
I944
sVthelma
p945
I945
sVwith
p946
I946
sVbuying
p947
I947
sVpull
p948
I948
sVrush
p949
I949
sVoctober
p950
I950
sVdirty
p951
I951
sVhe-
p952
I952
sVdependents
p953
I953
sVtrips
p954
I954
sVgone
p955
I955
sVdovish
p956
I956
sVad
p957
I957
sVai
p958
I958
sVah
p959
I959
sVak
p960
I960
sVdoug
p961
I961
sVam
p962
I962
sVal
p963
I963
sVwartime
p964
I964
sVan
p965
I965
sVap
p966
I966
sVas
p967
I967
sVassociating
p968
I968
sVat
p969
I969
sVwatched
p970
I970
sVoverfunded
p971
I971
sVappalling
p972
I972
sVmanaging
p973
I973
sVtight
p974
I974
sVwhip
p975
I975
sVcongress
p976
I976
sVbombed
p977
I977
sVre-
p978
I978
sVseriousness
p979
I979
sVwalker
p980
I980
sVterry
p981
I981
sVvisits
p982
I982
sVscuds
p983
I983
sVgroom
p984
I984
sVmimic
p985
I985
sVmass
p986
I986
sVnelson
p987
I987
sVmedvac
p988
I988
sVoriginal
p989
I989
sVwaiver
p990
I990
sV9/11
p991
I991
sVconsider
p992
I992
sVfifty-one
p993
I993
sVcaused
p994
I994
sVflahaut
p995
I995
sVtours
p996
I996
sVrestated
p997
I997
sVwelfare
p998
I998
sVhalsey
p999
I999
sVtransits
p1000
I1000
sVreasoning
p1001
I1001
sVcauses
p1002
I1002
sVimproperly
p1003
I1003
sVtaxicab
p1004
I1004
sVhunting
p1005
I1005
sVtv
p1006
I1006
sVcheney
p1007
I1007
sVhillsborough
p1008
I1008
sVto
p1009
I1009
sVsmile
p1010
I1010
sVmidwest
p1011
I1011
sVnorm
p1012
I1012
sVpaying
p1013
I1013
sVlaser-guided
p1014
I1014
sVreturned
p1015
I1015
sV1,506
p1016
I1016
sVbaton
p1017
I1017
sV1950-53
p1018
I1018
sVlabor
p1019
I1019
sV24th
p1020
I1020
sVcondition
p1021
I1021
sVillustrated
p1022
I1022
sVcable
p1023
I1023
sVheist
p1024
I1024
sVlaying
p1025
I1025
sVjoined
p1026
I1026
sVlarge
p1027
I1027
sVsand
p1028
I1028
sVt-
p1029
I1029
sVoutburst
p1030
I1030
sVharry
p1031
I1031
sVsmall
p1032
I1032
sVmosul
p1033
I1033
sVquicker
p1034
I1034
sVpast
p1035
I1035
sVpass
p1036
I1036
sVturning
p1037
I1037
sVdestitute
p1038
I1038
sVinvestment
p1039
I1039
sVrichard
p1040
I1040
sVclock
p1041
I1041
sV15,000
p1042
I1042
sVsection
p1043
I1043
sVscientists
p1044
I1044
sVavenues
p1045
I1045
sVmethod
p1046
I1046
sVfull
p1047
I1047
sVinstallations
p1048
I1048
sVlobbyist
p1049
I1049
sVhours
p1050
I1050
sVcivilians
p1051
I1051
sVnovember
p1052
I1052
sVlegend
p1053
I1053
sVbremner
p1054
I1054
sVcompliance
p1055
I1055
sVbrutal
p1056
I1056
sVprior
p1057
I1057
sVpick
p1058
I1058
sVaction
p1059
I1059
sVcorps
p1060
I1060
sVsmuggle
p1061
I1061
sVvia
p1062
I1062
sVfollowed
p1063
I1063
sVbyrd
p1064
I1064
sVregiment
p1065
I1065
sVviz
p1066
I1066
sVcommonalities
p1067
I1067
sVnightscope
p1068
I1068
sVselect
p1069
I1069
sVintensive
p1070
I1070
sVfutcher
p1071
I1071
sViraqi-kurdish
p1072
I1072
sVpearl
p1073
I1073
sVbeatriz
p1074
I1074
sVmore
p1075
I1075
sVdoor
p1076
I1076
sVcompany
p1077
I1077
sVwaterways
p1078
I1078
sVtelephone
p1079
I1079
sVak-47s
p1080
I1080
sVfoundations
p1081
I1081
sVobjections
p1082
I1082
sVkeeping
p1083
I1083
sVanxieties
p1084
I1084
sVscience
p1085
I1085
sVshrestha
p1086
I1086
sVmall
p1087
I1087
sVresources
p1088
I1088
sVlearn
p1089
I1089
sVknocked
p1090
I1090
sVmale
p1091
I1091
sVbeautiful
p1092
I1092
sVmnth
p1093
I1093
sVstated
p1094
I1094
sVsuggestions
p1095
I1095
sVclotheslines
p1096
I1096
sVaccept
p1097
I1097
sVstates
p1098
I1098
sVbiden
p1099
I1099
sVfiercely
p1100
I1100
sV'91
p1101
I1101
sVsense
p1102
I1102
sVaxis
p1103
I1103
sVhuge
p1104
I1104
sVrespective
p1105
I1105
sVimminent
p1106
I1106
sVthumbs
p1107
I1107
sVshipped
p1108
I1108
sVdismissed
p1109
I1109
sVhugs
p1110
I1110
sVtoyoda
p1111
I1111
sVwaved
p1112
I1112
sVplant
p1113
I1113
sVparatroop
p1114
I1114
sVplans
p1115
I1115
sVentrepreneurship
p1116
I1116
sVplane
p1117
I1117
sVdirector
p1118
I1118
sVwaves
p1119
I1119
sVappealed
p1120
I1120
sVr.
p1121
I1121
sVrefuse
p1122
I1122
sVjiang
p1123
I1123
sVvolleyball
p1124
I1124
sVfundamental
p1125
I1125
sVgeographic
p1126
I1126
sVitn
p1127
I1127
sVadorned
p1128
I1128
sVmoussa
p1129
I1129
sVtrade
p1130
I1130
sVattitude
p1131
I1131
sVembassy
p1132
I1132
sVscott
p1133
I1133
sVsigns
p1134
I1134
sVbulldozers
p1135
I1135
sVbroadway
p1136
I1136
sVsmiling
p1137
I1137
sVbrig
p1138
I1138
sVits
p1139
I1139
sVroemer
p1140
I1140
sVfiguring
p1141
I1141
sVgerald
p1142
I1142
sVbypass
p1143
I1143
sVtravelling
p1144
I1144
sVally
p1145
I1145
sVcolleague
p1146
I1146
sVrapier
p1147
I1147
sVskipped
p1148
I1148
sVentire
p1149
I1149
sVsecondarily
p1150
I1150
sVharrod
p1151
I1151
sVexpectingn
p1152
I1152
sVkennesaw
p1153
I1153
sVsen.
p1154
I1154
sVdesignation
p1155
I1155
sVcoping
p1156
I1156
sValways
p1157
I1157
sVnonaggression
p1158
I1158
sVfound
p1159
I1159
sVshocking
p1160
I1160
sVinvestigators
p1161
I1161
sVstatus
p1162
I1162
sVhelp-
p1163
I1163
sVengland
p1164
I1164
sVresolute
p1165
I1165
sVreduce
p1166
I1166
sVexorbitant
p1167
I1167
sVoperation
p1168
I1168
sVreally
p1169
I1169
sVpullback
p1170
I1170
sVcounter-demonstrations
p1171
I1171
sVmissed
p1172
I1172
sVblacks
p1173
I1173
sVdxdc
p1174
I1174
sVfta
p1175
I1175
sVministerial
p1176
I1176
sVplotting
p1177
I1177
sVhighway
p1178
I1178
sVsnow-dusted
p1179
I1179
sVcockpit
p1180
I1180
sVbungled
p1181
I1181
sVproxy
p1182
I1182
sVrises
p1183
I1183
sVsurface-to-air
p1184
I1184
sVbumped
p1185
I1185
sVowners
p1186
I1186
sVretained
p1187
I1187
sVbumper
p1188
I1188
sVunmanned
p1189
I1189
sVmajor
p1190
I1190
sVwilder
p1191
I1191
sVbrutally
p1192
I1192
sVpreservation
p1193
I1193
sVdinger
p1194
I1194
sVanonymity
p1195
I1195
sVmulti-billion
p1196
I1196
sVguess
p1197
I1197
sVheads
p1198
I1198
sVjet
p1199
I1199
sVarlington
p1200
I1200
sVthreatening
p1201
I1201
sVcheckpoint
p1202
I1202
sVsaint
p1203
I1203
sVnon-essential
p1204
I1204
sVrelationship
p1205
I1205
sVinterviewed
p1206
I1206
sVimmediate
p1207
I1207
sVfocusing
p1208
I1208
sVstifle
p1209
I1209
sVunrealistic
p1210
I1210
sVaaa
p1211
I1211
sViranian
p1212
I1212
sVcondolences
p1213
I1213
sVkreme
p1214
I1214
sVal-ahram
p1215
I1215
sVvocal
p1216
I1216
sVminimize
p1217
I1217
sVdetermined
p1218
I1218
sVemirates
p1219
I1219
sVbeneficial
p1220
I1220
sVremembers
p1221
I1221
sVfights
p1222
I1222
sVorganisations
p1223
I1223
sVguarding
p1224
I1224
sVantarctica
p1225
I1225
sVsell
p1226
I1226
sVcarnival
p1227
I1227
sVodd
p1228
I1228
sVself
p1229
I1229
sValso
p1230
I1230
sVrecognizing
p1231
I1231
sVinternal
p1232
I1232
sVplay
p1233
I1233
sV20-year-old
p1234
I1234
sVunused
p1235
I1235
sVbrooklyn
p1236
I1236
sVplan
p1237
I1237
sVunequal
p1238
I1238
sVseize
p1239
I1239
sVsometimes
p1240
I1240
sVcover
p1241
I1241
sVhamid
p1242
I1242
sVlounge
p1243
I1243
sVdragged
p1244
I1244
sVdespise
p1245
I1245
sVgold
p1246
I1246
sVuga
p1247
I1247
sVhoisted
p1248
I1248
sVdefended
p1249
I1249
sVsession
p1250
I1250
sVexpressed
p1251
I1251
sVgissin
p1252
I1252
sVdegraded
p1253
I1253
sVoverwhelmed
p1254
I1254
sVoccupation
p1255
I1255
sVpleaded
p1256
I1256
sVwrites
p1257
I1257
sVwriter
p1258
I1258
sVclothesline
p1259
I1259
sVfailed
p1260
I1260
sVwayne
p1261
I1261
sVfactor
p1262
I1262
sVcuba
p1263
I1263
sVcolumns
p1264
I1264
sVdependent
p1265
I1265
sVbeams
p1266
I1266
sVclosely
p1267
I1267
sVreporters
p1268
I1268
sVfrightening
p1269
I1269
sVdistraction
p1270
I1270
sVenemy
p1271
I1271
sVsects
p1272
I1272
sVwheelchair-
p1273
I1273
sVcry
p1274
I1274
sVbanking
p1275
I1275
sVsurrendering
p1276
I1276
sVcouriers
p1277
I1277
sVobscure
p1278
I1278
sVriver
p1279
I1279
sVapproaching
p1280
I1280
sVsev
p1281
I1281
sVset
p1282
I1282
sVcarrying
p1283
I1283
sVactivists
p1284
I1284
sVsex
p1285
I1285
sVcollectively
p1286
I1286
sVsee
p1287
I1287
sVsec
p1288
I1288
sVsea
p1289
I1289
sVoverboard
p1290
I1290
sVinstitutes
p1291
I1291
sVknees
p1292
I1292
sVspirits
p1293
I1293
sVnegotiator
p1294
I1294
sVunsettling
p1295
I1295
sVmovie
p1296
I1296
sVcurrently
p1297
I1297
sVrejecting
p1298
I1298
sVtultuli
p1299
I1299
sVworking-level
p1300
I1300
sV~plo
p1301
I1301
sVskimmed
p1302
I1302
sVavailable
p1303
I1303
sVchinese-produced
p1304
I1304
sVsabliere
p1305
I1305
sVtargeted
p1306
I1306
sVlem
p1307
I1307
sVincident
p1308
I1308
sV11-year-old
p1309
I1309
sVlegislature
p1310
I1310
sVlast
p1311
I1311
sVbarely
p1312
I1312
sVconnection
p1313
I1313
sVlong-term
p1314
I1314
sVlet
p1315
I1315
sVwhole
p1316
I1316
sVshortsighted
p1317
I1317
sVload
p1318
I1318
sVvisionaries
p1319
I1319
sVdrunk
p1320
I1320
sVloan
p1321
I1321
sVnortheastern
p1322
I1322
sVallegiance
p1323
I1323
sVcommunity
p1324
I1324
sVcoincidence
p1325
I1325
sVagents
p1326
I1326
sVchurch
p1327
I1327
sVsammy
p1328
I1328
sVbelt
p1329
I1329
sVdevil
p1330
I1330
sVu.s.-led
p1331
I1331
sVacceptance
p1332
I1332
sVlets
p1333
I1333
sVconvicted
p1334
I1334
sVunpatriotic
p1335
I1335
sVcitations
p1336
I1336
sVassassinated
p1337
I1337
sVcombatants
p1338
I1338
sVfire
p1339
I1339
sVnra
p1340
I1340
sVfund
p1341
I1341
sVspearheaded
p1342
I1342
sVtowns
p1343
I1343
sVconsulate
p1344
I1344
sVpackers
p1345
I1345
sVhandling
p1346
I1346
sVuncertain
p1347
I1347
sVjudicial
p1348
I1348
sVstraight
p1349
I1349
sVexpanded
p1350
I1350
sVbudget
p1351
I1351
sVerror
p1352
I1352
sVproperly
p1353
I1353
sVowed
p1354
I1354
sVpound
p1355
I1355
sVhoping
p1356
I1356
sVbacking
p1357
I1357
sVaveraging
p1358
I1358
sVowen
p1359
I1359
sVmiddle-east
p1360
I1360
sVcoca-cola
p1361
I1361
sVrules
p1362
I1362
sVvirtually
p1363
I1363
sVresulting
p1364
I1364
sVd.c.
p1365
I1365
sVsnail
p1366
I1366
sVderby
p1367
I1367
sVshaarei
p1368
I1368
sValert
p1369
I1369
sVfleischer
p1370
I1370
sVlevels
p1371
I1371
sVrabid
p1372
I1372
sVnecessity
p1373
I1373
sVclimb
p1374
I1374
sVinfamous
p1375
I1375
sVrecent
p1376
I1376
sVcanned
p1377
I1377
sVhonor
p1378
I1378
sVperson
p1379
I1379
sVkelly
p1380
I1380
sVhypothesized
p1381
I1381
sVprotwo-pronged
p1382
I1382
sVlester
p1383
I1383
sVousting
p1384
I1384
sVa-10s
p1385
I1385
sVamr
p1386
I1386
sVbladders
p1387
I1387
sVsurprises
p1388
I1388
sVnight-time
p1389
I1389
sVrangers
p1390
I1390
sVparents
p1391
I1391
sVlocation
p1392
I1392
sVhomeland
p1393
I1393
sV500-pound
p1394
I1394
sVsurprised
p1395
I1395
sVindonesian
p1396
I1396
sVaustralia
p1397
I1397
sVvictims
p1398
I1398
sVemergency
p1399
I1399
sVdemands
p1400
I1400
sVcouple
p1401
I1401
sVmassud
p1402
I1402
sVsuffering
p1403
I1403
sVhooters
p1404
I1404
sVprotrayed
p1405
I1405
sVbuyout
p1406
I1406
sVformal
p1407
I1407
sVimposed
p1408
I1408
sVcommunications
p1409
I1409
sVcontinue
p1410
I1410
sVtribes
p1411
I1411
sVprivately
p1412
I1412
sVsenate
p1413
I1413
sVspring
p1414
I1414
sVmideast
p1415
I1415
sVcurious
p1416
I1416
sVbattalion
p1417
I1417
sVijn
p1418
I1418
sVand/or
p1419
I1419
sVreligion
p1420
I1420
sVbe
p1421
I1421
sVtankers
p1422
I1422
sVidealistic
p1423
I1423
sVagreement
p1424
I1424
sVothman
p1425
I1425
sVconcealed
p1426
I1426
sVrelating
p1427
I1427
sVdictated
p1428
I1428
sVby
p1429
I1429
sVanything
p1430
I1430
sVdeserves
p1431
I1431
sVambush
p1432
I1432
sVmouth
p1433
I1433
sV12,000
p1434
I1434
sVclinton
p1435
I1435
sVcolorado
p1436
I1436
sVhaditha
p1437
I1437
sVterrorists
p1438
I1438
sVhometown
p1439
I1439
sVinto
p1440
I1440
sVrecreate
p1441
I1441
sVosama
p1442
I1442
sVappropriate
p1443
I1443
sVprimarily
p1444
I1444
sVunnerving
p1445
I1445
sVpyle
p1446
I1446
sVspending
p1447
I1447
sVsock
p1448
I1448
sVspecifically
p1449
I1449
sVcrackdown
p1450
I1450
sVsuit
p1451
I1451
sV:
p1452
I1452
sVopens
p1453
I1453
sVelsewhere
p1454
I1454
sVjewish
p1455
I1455
sVposter
p1456
I1456
sVmanipulate
p1457
I1457
sVatlantic
p1458
I1458
sVover-zealous
p1459
I1459
sVline
p1460
I1460
sVconsiderable
p1461
I1461
sVcia
p1462
I1462
sVbumpers
p1463
I1463
sVup
p1464
I1464
sVus
p1465
I1465
sVum
p1466
I1466
sVpreemptive
p1467
I1467
sVverification
p1468
I1468
sVlast-minute
p1469
I1469
sVretaliatory
p1470
I1470
sVhornet
p1471
I1471
sVaerial
p1472
I1472
sVbylaws
p1473
I1473
sVchad
p1474
I1474
sVdefined
p1475
I1475
sVlikewise
p1476
I1476
sVchai
p1477
I1477
sVdeadliest
p1478
I1478
sVe-mails
p1479
I1479
sVskimming
p1480
I1480
sVdefines
p1481
I1481
sVthugs
p1482
I1482
sVfixing
p1483
I1483
sVedwards
p1484
I1484
sV24-member
p1485
I1485
sVinvalid
p1486
I1486
sVpoints
p1487
I1487
sV-without-
p1488
I1488
sVscraps
p1489
I1489
sVsorcerer
p1490
I1490
sVu.s.-
p1491
I1491
sVelements
p1492
I1492
sVwrongly
p1493
I1493
sVprosecution
p1494
I1494
sVshenandoah
p1495
I1495
sVbodily
p1496
I1496
sVsides
p1497
I1497
sVago
p1498
I1498
sVlane
p1499
I1499
sVland
p1500
I1500
sVfighter
p1501
I1501
sVrescued
p1502
I1502
sVwalked
p1503
I1503
sVwatertown
p1504
I1504
sVsummit
p1505
I1505
sVwriter/editor
p1506
I1506
sVoracle
p1507
I1507
sVfresh
p1508
I1508
sVmenace
p1509
I1509
sVhaving
p1510
I1510
sVadvisory
p1511
I1511
sVscooped
p1512
I1512
sVresults
p1513
I1513
sVexisting
p1514
I1514
sVhighways
p1515
I1515
sVsofter
p1516
I1516
sV37,000
p1517
I1517
sVlegal
p1518
I1518
sVbroader
p1519
I1519
sVholdout
p1520
I1520
sVshias
p1521
I1521
sVcenters
p1522
I1522
sVseemed
p1523
I1523
sVturkish
p1524
I1524
sVfarmyard
p1525
I1525
sVconcerned
p1526
I1526
sVyoung
p1527
I1527
sVsend
p1528
I1528
sVmigs
p1529
I1529
sVdislike
p1530
I1530
sVworldcom
p1531
I1531
sVsent
p1532
I1532
sVprobe
p1533
I1533
sVgarden
p1534
I1534
sVtorture
p1535
I1535
sVcontinues
p1536
I1536
sVcontinued
p1537
I1537
sVwipe
p1538
I1538
sVmagic
p1539
I1539
sVharbor
p1540
I1540
sVmarry
p1541
I1541
sVeve
p1542
I1542
sVfewer
p1543
I1543
sVtry
p1544
I1544
sVrace
p1545
I1545
sVextraditing
p1546
I1546
sVmassachusetts
p1547
I1547
sVlogistics
p1548
I1548
sVpledge
p1549
I1549
sVmediterranean
p1550
I1550
sVvideo
p1551
I1551
sVmunitions
p1552
I1552
sVpajamas
p1553
I1553
sVplately
p1554
I1554
sVthat-
p1555
I1555
sVshooting-down
p1556
I1556
sVapparatus
p1557
I1557
sVjusuf
p1558
I1558
sVindias
p1559
I1559
sVrichmond
p1560
I1560
sVabilene
p1561
I1561
sVchalabi
p1562
I1562
sVflowing
p1563
I1563
sVfirms
p1564
I1564
sVproliferation
p1565
I1565
sVled
p1566
I1566
sVlee
p1567
I1567
sVleg
p1568
I1568
sVgathered
p1569
I1569
sVpunch
p1570
I1570
sVleo
p1571
I1571
sVslogans
p1572
I1572
sVabhuey
p1573
I1573
sVconsideration
p1574
I1574
sVcnn/
p1575
I1575
sVfifteen
p1576
I1576
sVparkway
p1577
I1577
sVgreat
p1578
I1578
sVengage
p1579
I1579
sVreceive
p1580
I1580
sVinvolved
p1581
I1581
sVsurvey
p1582
I1582
sVdefeat
p1583
I1583
sVskin
p1584
I1584
sVopinion
p1585
I1585
sVresidents
p1586
I1586
sVmakes
p1587
I1587
sVportas
p1588
I1588
sVmarc
p1589
I1589
sVpanicked
p1590
I1590
sVinnocence
p1591
I1591
sVratcheted
p1592
I1592
sVstanding
p1593
I1593
sVconfidence
p1594
I1594
sVcheered
p1595
I1595
sVcertificate
p1596
I1596
sVillegal
p1597
I1597
sVministers
p1598
I1598
sVnext
p1599
I1599
sVeleven
p1600
I1600
sVduplicate
p1601
I1601
sVdoubt
p1602
I1602
sVthi-
p1603
I1603
sVface-to-face
p1604
I1604
sVdoubling
p1605
I1605
sVmidday
p1606
I1606
sVyugoslavian
p1607
I1607
sVoccurred
p1608
I1608
sVdisarming
p1609
I1609
sVopposing
p1610
I1610
sVbaby
p1611
I1611
sValbanians
p1612
I1612
sVcharity
p1613
I1613
sVcustomer
p1614
I1614
sVpracticing
p1615
I1615
sVretreated
p1616
I1616
sVthis
p1617
I1617
sV19-year-old
p1618
I1618
sVinsists
p1619
I1619
sVmaronite
p1620
I1620
sVjemaah
p1621
I1621
sVthin
p1622
I1622
sVdrill
p1623
I1623
sVsaba
p1624
I1624
sVprocess
p1625
I1625
sVpurposes
p1626
I1626
sVpieces
p1627
I1627
sVhigh
p1628
I1628
sVrods
p1629
I1629
sVmartyr
p1630
I1630
sVdocking
p1631
I1631
sVdestroying
p1632
I1632
sVkhoser
p1633
I1633
sVdelay
p1634
I1634
sVescalating
p1635
I1635
sVpair
p1636
I1636
sVinsistent
p1637
I1637
sVhangar
p1638
I1638
sVcorpsmen
p1639
I1639
sVluster
p1640
I1640
sVawait
p1641
I1641
sVtied
p1642
I1642
sVsleeked
p1643
I1643
sVdemonstrating
p1644
I1644
sVreggie
p1645
I1645
sVupstate
p1646
I1646
sVhensley
p1647
I1647
sVrealized
p1648
I1648
sVboeing
p1649
I1649
sVcounter
p1650
I1650
sVreminders
p1651
I1651
sVallow
p1652
I1652
sVcounted
p1653
I1653
sVhouston
p1654
I1654
sVsimilarities
p1655
I1655
sVproducer
p1656
I1656
sVunpalatable
p1657
I1657
sVmove
p1658
I1658
sVproduced
p1659
I1659
sVmotorcycle
p1660
I1660
sVoperative
p1661
I1661
sVwarren
p1662
I1662
sVperfect
p1663
I1663
sVchosen
p1664
I1664
sV7-year-old
p1665
I1665
sVsurgeons
p1666
I1666
sVmeantime
p1667
I1667
sVthieves
p1668
I1668
sVstalled
p1669
I1669
sVhijackers
p1670
I1670
sVdocs
p1671
I1671
sVrepercussions
p1672
I1672
sVharrisburg
p1673
I1673
sVheavy-handed
p1674
I1674
sVsnake
p1675
I1675
sV1:58
p1676
I1676
sVgarner
p1677
I1677
sVrealize
p1678
I1678
sVpresidential
p1679
I1679
sViraqies
p1680
I1680
sVwrangles
p1681
I1681
sVirks
p1682
I1682
sVsniffing
p1683
I1683
sVtruth
p1684
I1684
sVrising
p1685
I1685
sVtracer
p1686
I1686
sVdoing
p1687
I1687
sVsociety
p1688
I1688
sVbay
p1689
I1689
sVwitness
p1690
I1690
sV'
p1691
I1691
sVladan
p1692
I1692
sVhanoun
p1693
I1693
sVbritons
p1694
I1694
sVshut
p1695
I1695
sVadherence
p1696
I1696
sVloomed
p1697
I1697
sVsurely
p1698
I1698
sVthrust
p1699
I1699
sVembarrass
p1700
I1700
sVus-backed
p1701
I1701
sVtwo-pronged
p1702
I1702
sVmainland
p1703
I1703
sVspill
p1704
I1704
sVdubbed
p1705
I1705
sVcould
p1706
I1706
sVsherpa
p1707
I1707
sVdavid
p1708
I1708
sVnonparticipant
p1709
I1709
sVhindering
p1710
I1710
sVremoving
p1711
I1711
sVdavis
p1712
I1712
sVhussein
p1713
I1713
sVtroublemakers
p1714
I1714
sVblown
p1715
I1715
sVscene
p1716
I1716
sVowned
p1717
I1717
sVracism
p1718
I1718
sVmuhammad
p1719
I1719
sVties
p1720
I1720
sVowner
p1721
I1721
sVthree-way
p1722
I1722
sVlegislative
p1723
I1723
sVsharon
p1724
I1724
sVtwo-
p1725
I1725
sVdeceptive
p1726
I1726
sVfascinating
p1727
I1727
sVlos
p1728
I1728
sVordering
p1729
I1729
sVprostate
p1730
I1730
sVsystem
p1731
I1731
sVsergeant
p1732
I1732
sVexhilarating
p1733
I1733
sVpainful
p1734
I1734
sVevacuated
p1735
I1735
sVinterests
p1736
I1736
sVenforcement
p1737
I1737
sVvigorous
p1738
I1738
sVstars
p1739
I1739
sVoconer
p1740
I1740
sVstarr
p1741
I1741
sVelite
p1742
I1742
sVcolleagues
p1743
I1743
sVwarfare
p1744
I1744
sVbother
p1745
I1745
sVtortured
p1746
I1746
sVappealing
p1747
I1747
sVinfo
p1748
I1748
sVdisband
p1749
I1749
sVbriefing
p1750
I1750
sVaccusing
p1751
I1751
sVfalse
p1752
I1752
sVtutsis
p1753
I1753
sVtonight
p1754
I1754
sVdefending
p1755
I1755
sVclearly
p1756
I1756
sVdocuments
p1757
I1757
sVoverthrew
p1758
I1758
sVfemoral
p1759
I1759
sVstudying
p1760
I1760
sVjurisdictions
p1761
I1761
sVchief
p1762
I1762
sVmechanism
p1763
I1763
sVdemolished
p1764
I1764
sVashore
p1765
I1765
sVlinda
p1766
I1766
sVkorean
p1767
I1767
sVjuliet
p1768
I1768
sVairdrop
p1769
I1769
sVsoap
p1770
I1770
sVtoughest
p1771
I1771
sVjean-marc
p1772
I1772
sVbombed-out
p1773
I1773
sVadvances
p1774
I1774
sVminorites
p1775
I1775
sVplus
p1776
I1776
sVsegment
p1777
I1777
sVfervent
p1778
I1778
sVso-called
p1779
I1779
sVlined
p1780
I1780
sVstronger
p1781
I1781
sVthanksgiving
p1782
I1782
sVface
p1783
I1783
sVpossibilitys
p1784
I1784
sVmechanical
p1785
I1785
sVwounded
p1786
I1786
sVpainting
p1787
I1787
sVfact
p1788
I1788
sVatmosphere
p1789
I1789
sVbring
p1790
I1790
sVlloyd
p1791
I1791
sVrouge
p1792
I1792
sVrough
p1793
I1793
sV9-year-old
p1794
I1794
sVdecade
p1795
I1795
sVprincipal
p1796
I1796
sVpause
p1797
I1797
sVjay
p1798
I1798
sVsamarra
p1799
I1799
sVplutonium-producing
p1800
I1800
sVshould
p1801
I1801
sVterminal
p1802
I1802
sVbombings
p1803
I1803
sVtape
p1804
I1804
sVriding
p1805
I1805
sVgod-given
p1806
I1806
sVjab
p1807
I1807
sVsecretaries
p1808
I1808
sVhope
p1809
I1809
sVexchanged
p1810
I1810
sVhandle
p1811
I1811
sVlistened
p1812
I1812
sVmeans
p1813
I1813
sVfamiliar
p1814
I1814
sVlucky
p1815
I1815
sVprohibition
p1816
I1816
sVauswitch
p1817
I1817
sVdefenseless
p1818
I1818
sVabby
p1819
I1819
sVsmash
p1820
I1820
sVcommittees
p1821
I1821
sVembedded
p1822
I1822
sVdenmark
p1823
I1823
sVtaxes
p1824
I1824
sVvying
p1825
I1825
sVextremists
p1826
I1826
sVstuff
p1827
I1827
sVstreamlined
p1828
I1828
sVgbp
p1829
I1829
sVohio
p1830
I1830
sVdirects
p1831
I1831
sVtemporarily
p1832
I1832
sV10-year-old
p1833
I1833
sVbtk
p1834
I1834
sVwire
p1835
I1835
sVnuclear
p1836
I1836
sVpartisan
p1837
I1837
sVemail
p1838
I1838
sVshiite
p1839
I1839
sVends
p1840
I1840
sVprobed
p1841
I1841
sVlawsuit
p1842
I1842
sVnon-sunnis
p1843
I1843
sVfigured
p1844
I1844
sVkofi
p1845
I1845
sVinvited
p1846
I1846
sVdrug
p1847
I1847
sVetc
p1848
I1848
sVdoorway
p1849
I1849
sVharvard
p1850
I1850
sVfigures
p1851
I1851
sVpresident/vice
p1852
I1852
sVfayyad
p1853
I1853
sVadjusted
p1854
I1854
sVconclude
p1855
I1855
sVauthorised
p1856
I1856
sVca
p1857
I1857
sVmohamad
p1858
I1858
sVimclone
p1859
I1859
sVwinning
p1860
I1860
sVtikrit
p1861
I1861
sVoutsider
p1862
I1862
sVdoor-to-door
p1863
I1863
sVak-47
p1864
I1864
sVcompensating
p1865
I1865
sVwaste
p1866
I1866
sVlouisiana
p1867
I1867
sVhomosexual
p1868
I1868
sVc.
p1869
I1869
sVc-
p1870
I1870
sVswarmed
p1871
I1871
sVrioting
p1872
I1872
sVtripuras
p1873
I1873
sVatlanta
p1874
I1874
sVexpounded
p1875
I1875
sVspain
p1876
I1876
sVlaser
p1877
I1877
sVrunway
p1878
I1878
sVdistress
p1879
I1879
sVexpiration
p1880
I1880
sVbathtub
p1881
I1881
sVva
p1882
I1882
sVlayoff
p1883
I1883
sVkurdistan
p1884
I1884
sVdelaying
p1885
I1885
sVsite
p1886
I1886
sVoptimistic
p1887
I1887
sVsits
p1888
I1888
sVlunatic
p1889
I1889
sVterrorist
p1890
I1890
sVconcealing
p1891
I1891
sVof-
p1892
I1892
sVpaulo
p1893
I1893
sVoutbreak
p1894
I1894
sVterrorism
p1895
I1895
sVoutlined
p1896
I1896
sVpaula
p1897
I1897
sVball
p1898
I1898
sVcolumbia
p1899
I1899
sVbali
p1900
I1900
sVdusk
p1901
I1901
sVdrink
p1902
I1902
sVupon
p1903
I1903
sVv.
p1904
I1904
sVdust
p1905
I1905
sVafghan
p1906
I1906
sVidentity
p1907
I1907
sVextradited
p1908
I1908
sVdock
p1909
I1909
sVindonesia
p1910
I1910
sVmukhabarat
p1911
I1911
sVsoutheastern
p1912
I1912
sV1.29
p1913
I1913
sVcommand
p1914
I1914
sVadministered
p1915
I1915
sVbothering
p1916
I1916
sVnewest
p1917
I1917
sVnegligence
p1918
I1918
sVless
p1919
I1919
sVmoments
p1920
I1920
sVkramer
p1921
I1921
sVrooms
p1922
I1922
sVhauled
p1923
I1923
sVpaul
p1924
I1924
sVweb
p1925
I1925
sVgenerous
p1926
I1926
sVresidential
p1927
I1927
sVsickened
p1928
I1928
sVoutlines
p1929
I1929
sVarrest
p1930
I1930
sVcrack
p1931
I1931
sVadvanced
p1932
I1932
sVinnocents
p1933
I1933
sVincreased
p1934
I1934
sVgovernment
p1935
I1935
sVchecking
p1936
I1936
sVchancellor
p1937
I1937
sVcruz
p1938
I1938
sVfive
p1939
I1939
sVcapitulation
p1940
I1940
sVbelgium
p1941
I1941
sVairports
p1942
I1942
sVgypsies
p1943
I1943
sVyou
p1944
I1944
sVbecome
p1945
I1945
sVreplacement
p1946
I1946
sVnajaf
p1947
I1947
sVliquidation
p1948
I1948
sVknifepoint
p1949
I1949
sVpolar
p1950
I1950
sVturner-funded
p1951
I1951
sVbarnie
p1952
I1952
sVchoosing
p1953
I1953
sVkarbala
p1954
I1954
sVrecognition
p1955
I1955
sVliterally
p1956
I1956
sVavoid
p1957
I1957
sVseparate
p1958
I1958
sVfedex
p1959
I1959
sVdemonstrators
p1960
I1960
sVdoes
p1961
I1961
sVblowing
p1962
I1962
sVschedule
p1963
I1963
sVpressure
p1964
I1964
sV'you
p1965
I1965
sVloans
p1966
I1966
sVvs.
p1967
I1967
sVstage
p1968
I1968
sVsister
p1969
I1969
sVdoe-
p1970
I1970
sVangeles
p1971
I1971
sVconcession
p1972
I1972
sVexecutives
p1973
I1973
sValliance
p1974
I1974
sVletters
p1975
I1975
sVtanzim
p1976
I1976
sVmers
p1977
I1977
sVcatherine
p1978
I1978
sVcommitment
p1979
I1979
sVreferendum
p1980
I1980
sVlung
p1981
I1981
sVf.d.r
p1982
I1982
sVroads
p1983
I1983
sVbanco
p1984
I1984
sVreactivate
p1985
I1985
sVspots
p1986
I1986
sVkooky
p1987
I1987
sVfrustration
p1988
I1988
sVyrs
p1989
I1989
sVskoll
p1990
I1990
sV9.3
p1991
I1991
sVfunnel
p1992
I1992
sVbashur
p1993
I1993
sVsuits
p1994
I1994
sVxinhua
p1995
I1995
sVdelivery
p1996
I1996
sVconstruction
p1997
I1997
sVthey-
p1998
I1998
sVcount
p1999
I1999
sVbaptist
p2000
I2000
sVplaces
p2001
I2001
sVcongresswoman
p2002
I2002
sVofficial
p2003
I2003
sVplaced
p2004
I2004
sVproblem
p2005
I2005
sV278th
p2006
I2006
sVnurses
p2007
I2007
sVrecognize
p2008
I2008
sVcontribute
p2009
I2009
sVrubble
p2010
I2010
sV0.0000001
p2011
I2011
sVfather-in-law
p2012
I2012
sVink
p2013
I2013
sVing
p2014
I2014
sVplanting
p2015
I2015
sVrenowned
p2016
I2016
sVcompared
p2017
I2017
sVprosperous
p2018
I2018
sVvariety
p2019
I2019
sVdeadly
p2020
I2020
sVlately
p2021
I2021
sVarianna
p2022
I2022
sVdetails
p2023
I2023
sVsharir
p2024
I2024
sVreckless
p2025
I2025
sVfrancisco
p2026
I2026
sVmonday
p2027
I2027
sVoutlets
p2028
I2028
sVchance
p2029
I2029
sVabolute
p2030
I2030
sVvein
p2031
I2031
sVexposure
p2032
I2032
sVlasted
p2033
I2033
sVrule
p2034
I2034
sVraanan
p2035
I2035
sV960,000
p2036
I2036
sVpension
p2037
I2037
sVsearched
p2038
I2038
sVrural
p2039
I2039
sVtax-exempt
p2040
I2040
sVrep
p2041
I2041
sVdoubts
p2042
I2042
sVcontroversial
p2043
I2043
sVcommandos
p2044
I2044
sVoldest
p2045
I2045
sVsaved
p2046
I2046
sVvotes
p2047
I2047
sVventral
p2048
I2048
sVshi'ites
p2049
I2049
sV33-month
p2050
I2050
sVcertain
p2051
I2051
sVvoted
p2052
I2052
sVtyrannies
p2053
I2053
sVworth
p2054
I2054
sVdistort
p2055
I2055
sVtickets
p2056
I2056
sVontime
p2057
I2057
sVvillepin
p2058
I2058
sVannounced
p2059
I2059
sVjassem
p2060
I2060
sVblasphemy
p2061
I2061
sV7th
p2062
I2062
sVjessica
p2063
I2063
sVestablished
p2064
I2064
sVincompatible
p2065
I2065
sVabove
p2066
I2066
sVtoll
p2067
I2067
sVsuppose
p2068
I2068
sVstruggled
p2069
I2069
sVofficially
p2070
I2070
sVtold
p2071
I2071
sVf-18s
p2072
I2072
sVsimultaneously
p2073
I2073
sVwrapping
p2074
I2074
sVconglomerate
p2075
I2075
sVprotection
p2076
I2076
sVobtained
p2077
I2077
sVdaughter
p2078
I2078
sVemployees
p2079
I2079
sVenvoy
p2080
I2080
sVadopt
p2081
I2081
sVsmoke
p2082
I2082
sVstressed
p2083
I2083
sVbunker
p2084
I2084
sVaka
p2085
I2085
sVpostponed
p2086
I2086
sVfitting
p2087
I2087
sVsecure
p2088
I2088
sVhighly
p2089
I2089
sVtotal
p2090
I2090
sVplot
p2091
I2091
sVpalestinian
p2092
I2092
sVgloss
p2093
I2093
sVindiana
p2094
I2094
sVseparated
p2095
I2095
sVtolerated
p2096
I2096
sVreign
p2097
I2097
sVaware
p2098
I2098
sVrecep
p2099
I2099
sVzeroed
p2100
I2100
sVblocking
p2101
I2101
sVharnessing
p2102
I2102
sVword
p2103
I2103
sVwore
p2104
I2104
sVwork
p2105
I2105
sVrefusing
p2106
I2106
sV55,119
p2107
I2107
sVera
p2108
I2108
sVmechanic
p2109
I2109
sVelegantly
p2110
I2110
sVindicated
p2111
I2111
sVcited
p2112
I2112
sVindia
p2113
I2113
sVfax
p2114
I2114
sVindicates
p2115
I2115
sVwoman
p2116
I2116
sVurbuinano
p2117
I2117
sVseveral-pronged
p2118
I2118
sVtornadoes
p2119
I2119
sVrecovery
p2120
I2120
sVcarriers
p2121
I2121
sVinhabitants
p2122
I2122
sVverify
p2123
I2123
sVbachler
p2124
I2124
sVlength
p2125
I2125
sVdisappear
p2126
I2126
sVinterview
p2127
I2127
sVordinary
p2128
I2128
sVfudge
p2129
I2129
sVafter
p2130
I2130
sVdamaged
p2131
I2131
sVmillimeter
p2132
I2132
sVstalinist
p2133
I2133
sVhalliburton
p2134
I2134
sVlax
p2135
I2135
sVlay
p2136
I2136
sVsuing
p2137
I2137
sVstrategists
p2138
I2138
sVlaw
p2139
I2139
sVex-wife
p2140
I2140
sVhasty
p2141
I2141
sVappreciate
p2142
I2142
sVgreet
p2143
I2143
sVgreek
p2144
I2144
sVgreen
p2145
I2145
sVsouth
p2146
I2146
sVambulance
p2147
I2147
sVworst
p2148
I2148
sVorder
p2149
I2149
sVgreed
p2150
I2150
sVnonhostile
p2151
I2151
sVthe-
p2152
I2152
sVoffice
p2153
I2153
sVdefenders
p2154
I2154
sVjabr
p2155
I2155
sVramadan
p2156
I2156
sVjapan
p2157
I2157
sVmayor
p2158
I2158
sVbombing
p2159
I2159
sV60-year-old
p2160
I2160
sViaea
p2161
I2161
sVsomewhere
p2162
I2162
sV50,000
p2163
I2163
sVdenver
p2164
I2164
sVproduction
p2165
I2165
sVvents
p2166
I2166
sVrussian-built
p2167
I2167
sVtheo
p2168
I2168
sVthen
p2169
I2169
sVthem
p2170
I2170
sVaffected
p2171
I2171
sVsafe
p2172
I2172
sVbreak
p2173
I2173
sVthey
p2174
I2174
sVbank
p2175
I2175
sVdefected
p2176
I2176
sVcia-insurgency
p2177
I2177
sVoxygen
p2178
I2178
sVshepperd
p2179
I2179
sVclassified
p2180
I2180
sV-for
p2181
I2181
sVrocks
p2182
I2182
sVreasonable
p2183
I2183
sVflyers
p2184
I2184
sVlifted
p2185
I2185
sVmonolith
p2186
I2186
sVlist
p2187
I2187
sVcrimes
p2188
I2188
sVhosted
p2189
I2189
sVlogo
p2190
I2190
sVflock
p2191
I2191
sVnetwork
p2192
I2192
sVforty
p2193
I2193
sVvessels
p2194
I2194
sVal-douri
p2195
I2195
sVmedicine
p2196
I2196
sVsteakhouse
p2197
I2197
sVforth
p2198
I2198
sV97-hour
p2199
I2199
sVveto
p2200
I2200
sVcampaigns
p2201
I2201
sVappointments
p2202
I2202
sVstiff-armed
p2203
I2203
sVrenee
p2204
I2204
sVcordons
p2205
I2205
sVrenea
p2206
I2206
sVcreated
p2207
I2207
sVrefugee
p2208
I2208
sVoppose
p2209
I2209
sVhome-made
p2210
I2210
sVmanslaughter
p2211
I2211
sVorganize
p2212
I2212
sVperkins
p2213
I2213
sVteen-age
p2214
I2214
sVanother
p2215
I2215
sVdrones
p2216
I2216
sVrats
p2217
I2217
sVcomic
p2218
I2218
sVyazid
p2219
I2219
sVrates
p2220
I2220
sVjohn
p2221
I2221
sVdogs
p2222
I2222
sVack-ack
p2223
I2223
sVradars
p2224
I2224
sVrejected
p2225
I2225
sVscant
p2226
I2226
sVwasted
p2227
I2227
sVtoronto
p2228
I2228
sVmercy
p2229
I2229
sVtarget
p2230
I2230
sVscenes
p2231
I2231
sVebay
p2232
I2232
sVsabato
p2233
I2233
sVclosed-door
p2234
I2234
sVhistorical
p2235
I2235
sVunconditionally
p2236
I2236
sVapparantly
p2237
I2237
sVpowers
p2238
I2238
sVmanned
p2239
I2239
sVfandom
p2240
I2240
sVmanner
p2241
I2241
sVstomach
p2242
I2242
sVforced
p2243
I2243
sVa/k/a
p2244
I2244
sVstrength
p2245
I2245
sVgenuine
p2246
I2246
sVladen
p2247
I2247
sVself-defense
p2248
I2248
sVforces
p2249
I2249
sVconducive
p2250
I2250
sVnobody
p2251
I2251
sV400,000
p2252
I2252
sVkhor
p2253
I2253
sVpt-109
p2254
I2254
sVanatomy
p2255
I2255
sVinvolving
p2256
I2256
sVgermany
p2257
I2257
sVphase
p2258
I2258
sVautopsy
p2259
I2259
sVgrave
p2260
I2260
sVhanna
p2261
I2261
sVleaflet
p2262
I2262
sVaunt
p2263
I2263
sVsun
p2264
I2264
sVvoting
p2265
I2265
sVoppress
p2266
I2266
sVreserve
p2267
I2267
sVrenewed
p2268
I2268
sVasia-pacific
p2269
I2269
sVanniversary
p2270
I2270
sVrespectfully
p2271
I2271
sVnephew
p2272
I2272
sVisreali
p2273
I2273
sVenjoyed
p2274
I2274
sVconsciousness
p2275
I2275
sVimplementation
p2276
I2276
sVdeepest
p2277
I2277
sVpursuing
p2278
I2278
sVrun-
p2279
I2279
sVpersonality
p2280
I2280
sVdn
p2281
I2281
sVdo
p2282
I2282
sVdi
p2283
I2283
sVde
p2284
I2284
sVdb
p2285
I2285
sVdc
p2286
I2286
sVda
p2287
I2287
sVcnn.com
p2288
I2288
sVverses
p2289
I2289
sVruns
p2290
I2290
sVemc
p2291
I2291
sVcovering
p2292
I2292
sV2:15
p2293
I2293
sVinsurgents
p2294
I2294
sVsquadron
p2295
I2295
sVsteam
p2296
I2296
sVsecretary
p2297
I2297
sVmiserably
p2298
I2298
sVon-field
p2299
I2299
sVw.
p2300
I2300
sVw-
p2301
I2301
sVrocket-propelled
p2302
I2302
sVobserved
p2303
I2303
sVdiscussions
p2304
I2304
sViran
p2305
I2305
sV2:58
p2306
I2306
sVtechniques
p2307
I2307
sVaway
p2308
I2308
sVcompensation
p2309
I2309
sVrushing
p2310
I2310
sVunable
p2311
I2311
sVtainted
p2312
I2312
sVcooperation
p2313
I2313
sVdrawn
p2314
I2314
sVencounters
p2315
I2315
sVwe
p2316
I2316
sVterms
p2317
I2317
sVmalpractice
p2318
I2318
sVwa
p2319
I2319
sVwo
p2320
I2320
sVhandful
p2321
I2321
sVwi
p2322
I2322
sVsickens
p2323
I2323
sVflashes
p2324
I2324
sVpackages
p2325
I2325
sVkitchen
p2326
I2326
sVreceived
p2327
I2327
sVessentially
p2328
I2328
sVayyoub
p2329
I2329
sVmuhammed
p2330
I2330
sVill
p2331
I2331
sVparalyzing
p2332
I2332
sVpresident-in-waiting
p2333
I2333
sVrequests
p2334
I2334
sVcom
p2335
I2335
sVnegotiation
p2336
I2336
sVeyesight
p2337
I2337
sVbnp
p2338
I2338
sVtone
p2339
I2339
sVislamists
p2340
I2340
sVroyal
p2341
I2341
sVtons
p2342
I2342
sVtony
p2343
I2343
sVfrenetic
p2344
I2344
sVresignation
p2345
I2345
sVtelecommunications
p2346
I2346
sVspeak
p2347
I2347
sVgratitude
p2348
I2348
sViraq
p2349
I2349
sVcondemned
p2350
I2350
sVostergaard
p2351
I2351
sVcosgrove
p2352
I2352
sVdozens
p2353
I2353
sVgrippedded
p2354
I2354
sVfamilies
p2355
I2355
sVeasy
p2356
I2356
sVattacked
p2357
I2357
sVpsychically
p2358
I2358
sVattacker
p2359
I2359
sVordnance
p2360
I2360
sVeast
p2361
I2361
sVconviction
p2362
I2362
sVpublicly
p2363
I2363
sVair
p2364
I2364
sVaim
p2365
I2365
sVentertains
p2366
I2366
sVaid
p2367
I2367
sVaig
p2368
I2368
sVvoice
p2369
I2369
sVlaunched
p2370
I2370
sVmistake
p2371
I2371
sVsticker
p2372
I2372
sVdumped
p2373
I2373
sVamortizable
p2374
I2374
sVcong
p2375
I2375
sVuplift
p2376
I2376
sVwarthog
p2377
I2377
sVconfirmed
p2378
I2378
sVapparently
p2379
I2379
sVtrashing
p2380
I2380
sVjerry
p2381
I2381
sVth-
p2382
I2382
sVaccumulating
p2383
I2383
sVindictment
p2384
I2384
sVconvictions
p2385
I2385
sVhank
p2386
I2386
sVindependent
p2387
I2387
sVraid
p2388
I2388
sVsaddam
p2389
I2389
sVnic
p2390
I2390
sVswell
p2391
I2391
sVevil
p2392
I2392
sVhand
p2393
I2393
sVhans
p2394
I2394
sVpalpable
p2395
I2395
sVblamed
p2396
I2396
sVcentred
p2397
I2397
sVvermont
p2398
I2398
sVsahiwal
p2399
I2399
sVscenario
p2400
I2400
sVcanidates
p2401
I2401
sVkoreas
p2402
I2402
sVexited
p2403
I2403
sVragged
p2404
I2404
sVcontact
p2405
I2405
sVthe
p2406
I2406
sVcamps
p2407
I2407
sVjidong
p2408
I2408
sVquoted
p2409
I2409
sVjabaliya
p2410
I2410
sVrpgs
p2411
I2411
sVphoto
p2412
I2412
sVmid
p2413
I2413
sVfarther
p2414
I2414
sVvictim
p2415
I2415
sVadding
p2416
I2416
sVhills
p2417
I2417
sVphotographer
p2418
I2418
sVsuddenly
p2419
I2419
sVshout
p2420
I2420
sVspread
p2421
I2421
sVboard
p2422
I2422
sVexpelled
p2423
I2423
sVcoalescing
p2424
I2424
sVarab
p2425
I2425
sVfusion
p2426
I2426
sVinjuring
p2427
I2427
sVcape
p2428
I2428
sVcapa
p2429
I2429
sVretreat
p2430
I2430
sVinsurgent
p2431
I2431
sVglitch
p2432
I2432
sVcooler
p2433
I2433
sVnight
p2434
I2434
sVinvaluable
p2435
I2435
sVsecurity
p2436
I2436
sVportuguese
p2437
I2437
sVhonored
p2438
I2438
sVsalim
p2439
I2439
sVsends
p2440
I2440
sVchamchamal
p2441
I2441
sVborn
p2442
I2442
sVunless
p2443
I2443
sVbore
p2444
I2444
sVmazen
p2445
I2445
sVconfusing
p2446
I2446
sVcarnival.com
p2447
I2447
sVcomments
p2448
I2448
sVre-visit
p2449
I2449
sVasking
p2450
I2450
sVdenied
p2451
I2451
sVbeating
p2452
I2452
sVcash-strapped
p2453
I2453
sVpose
p2454
I2454
sVconstructive
p2455
I2455
sVrestructuring
p2456
I2456
sVplo
p2457
I2457
sVpost
p2458
I2458
sVmonths
p2459
I2459
sVhostilities
p2460
I2460
sVsino-us
p2461
I2461
sVslusser
p2462
I2462
sVjacques
p2463
I2463
sVwasting
p2464
I2464
sVpays
p2465
I2465
sVprisoners
p2466
I2466
sVsparing
p2467
I2467
sVbound
p2468
I2468
sVhastert
p2469
I2469
sVback-to-back
p2470
I2470
sVtheorists
p2471
I2471
sVcreek
p2472
I2472
sV21.5
p2473
I2473
sVlegislation
p2474
I2474
sVsovereign
p2475
I2475
sVfight
p2476
I2476
sVwhy-
p2477
I2477
sVway
p2478
I2478
sVaccords
p2479
I2479
sVinnovators
p2480
I2480
sVwas
p2481
I2481
sVwar
p2482
I2482
sVkrystals
p2483
I2483
sVweldon
p2484
I2484
sVbecoming
p2485
I2485
sVsdebt
p2486
I2486
sVpeninsula
p2487
I2487
sVtaken
p2488
I2488
sVelderly
p2489
I2489
sVtrue
p2490
I2490
sVresponding
p2491
I2491
sVmaximum
p2492
I2492
sVcomplaint
p2493
I2493
sVemotional
p2494
I2494
sVstreet-to-street
p2495
I2495
sVinclusive
p2496
I2496
sVfront-running
p2497
I2497
sVevidence
p2498
I2498
sVpromised
p2499
I2499
sVindegrees
p2500
I2500
sVallegheny
p2501
I2501
sVincursion
p2502
I2502
sVhmong/chinese-speaking
p2503
I2503
sVdying
p2504
I2504
sVstake
p2505
I2505
sVnaji
p2506
I2506
sVinterested
p2507
I2507
sVholding
p2508
I2508
sVtest
p2509
I2509
sVbrothers
p2510
I2510
sVwelcome
p2511
I2511
sVcarty
p2512
I2512
sVal-ja'fari
p2513
I2513
sVtogether
p2514
I2514
sVloyal
p2515
I2515
sVreception
p2516
I2516
sVn.j.
p2517
I2517
sVbasically
p2518
I2518
sVtigris
p2519
I2519
sVdiplomacy
p2520
I2520
sVdance
p2521
I2521
sVglobal
p2522
I2522
sVcandlelight
p2523
I2523
sVarnett
p2524
I2524
sVgrateful
p2525
I2525
sVbattle
p2526
I2526
sVdevoted
p2527
I2527
sVcertainly
p2528
I2528
sVkillings
p2529
I2529
sVzone
p2530
I2530
sVhonoring
p2531
I2531
sVzeroing
p2532
I2532
sVcompensate
p2533
I2533
sVterror
p2534
I2534
sVsouthwest
p2535
I2535
sVdivision
p2536
I2536
sVcharles
p2537
I2537
sVdrudge
p2538
I2538
sVseemingly
p2539
I2539
sVliability
p2540
I2540
sVtwo-time
p2541
I2541
sVanonymous
p2542
I2542
sVtrouble
p2543
I2543
sVblast
p2544
I2544
sVperceived
p2545
I2545
sVcunningham
p2546
I2546
sVdrive-by
p2547
I2547
sVpresented
p2548
I2548
sValtering
p2549
I2549
sVturns
p2550
I2550
sVgun
p2551
I2551
sVgul
p2552
I2552
sVoffering
p2553
I2553
sVsidewalk
p2554
I2554
sVbrave
p2555
I2555
sVregret
p2556
I2556
sVcosa
p2557
I2557
sVcoalition
p2558
I2558
sVcost
p2559
I2559
sVupped
p2560
I2560
sVpenetrated
p2561
I2561
sVsnipers
p2562
I2562
sVrapist
p2563
I2563
sVasylum
p2564
I2564
sVcoat
p2565
I2565
sVappear
p2566
I2566
sVassistance
p2567
I2567
sVshares
p2568
I2568
sVuniform
p2569
I2569
sVshared
p2570
I2570
sVappeal
p2571
I2571
sVsatisfy
p2572
I2572
sVsupporting
p2573
I2573
sVexplosion
p2574
I2574
sVmuslim
p2575
I2575
sV2:30
p2576
I2576
sV2:34
p2577
I2577
sVapache
p2578
I2578
sVappears
p2579
I2579
sVchange
p2580
I2580
sVsending
p2581
I2581
sVprecursor
p2582
I2582
sVtrial
p2583
I2583
sVtagliabue
p2584
I2584
sVfranklin
p2585
I2585
sVusually
p2586
I2586
sVmontreal
p2587
I2587
sVchurchill
p2588
I2588
sVregardless
p2589
I2589
sVextra
p2590
I2590
sVmarked
p2591
I2591
sVpenalized
p2592
I2592
sVnepalese
p2593
I2593
sVfbi
p2594
I2594
sVnablus
p2595
I2595
sVmobil
p2596
I2596
sVmarket
p2597
I2597
sVdisagreement
p2598
I2598
sVprove
p2599
I2599
sVunimpressed
p2600
I2600
sVbury
p2601
I2601
sVresigns
p2602
I2602
sVayatollah
p2603
I2603
sVterritories
p2604
I2604
sVlive
p2605
I2605
sVintently
p2606
I2606
sVentrance
p2607
I2607
sVmissionaries
p2608
I2608
sVclub
p2609
I2609
sVenvelope
p2610
I2610
sVcommissioned
p2611
I2611
sVpay-out
p2612
I2612
sV8,000
p2613
I2613
sVorganizations
p2614
I2614
sVslogan
p2615
I2615
sVcar
p2616
I2616
sVmoon
p2617
I2617
sVpurge
p2618
I2618
sVhardest
p2619
I2619
sVincidents
p2620
I2620
sVcan
p2621
I2621
sVsocial
p2622
I2622
sVheart
p2623
I2623
sVrebuffed
p2624
I2624
sVdecember
p2625
I2625
sVsubsidies
p2626
I2626
sVtopic
p2627
I2627
sVheard
p2628
I2628
sVfortunes
p2629
I2629
sVchin
p2630
I2630
sVspa
p2631
I2631
sVclothing
p2632
I2632
sVbankrupt
p2633
I2633
sVdiscussion
p2634
I2634
sVbonds
p2635
I2635
sVwrite
p2636
I2636
sVdominance
p2637
I2637
sVeconomy
p2638
I2638
sVarmies
p2639
I2639
sVsacrifice
p2640
I2640
sVaol
p2641
I2641
sVsouthern
p2642
I2642
sVproduce
p2643
I2643
sVislands
p2644
I2644
sV5.4
p2645
I2645
sVendgame
p2646
I2646
sVlifting
p2647
I2647
sVremember
p2648
I2648
sVgrandson
p2649
I2649
sVnationalistic
p2650
I2650
sVaccelerated
p2651
I2651
sVquarter-million
p2652
I2652
sVopts
p2653
I2653
sVtypical
p2654
I2654
sVembassies
p2655
I2655
sVserving
p2656
I2656
sVindeed
p2657
I2657
sVpasko
p2658
I2658
sVended
p2659
I2659
sVaffirms
p2660
I2660
sVcold
p2661
I2661
sVstill
p2662
I2662
sVfor-
p2663
I2663
sVconquerors
p2664
I2664
sV1130gmt
p2665
I2665
sVreacting
p2666
I2666
sVinflicted
p2667
I2667
sVwindow
p2668
I2668
sVisraeli-palestinian
p2669
I2669
sVcorrespondence
p2670
I2670
sVhalt
p2671
I2671
sVnod
p2672
I2672
sVbrigadier
p2673
I2673
sVadrenaline
p2674
I2674
sVhalf
p2675
I2675
sVnot
p2676
I2676
sVnov
p2677
I2677
sVnow
p2678
I2678
sVprovision
p2679
I2679
sVdiscuss
p2680
I2680
sVnor
p2681
I2681
sVjames
p2682
I2682
sVdrop
p2683
I2683
sVsocial-democratic
p2684
I2684
sVnow-infamous
p2685
I2685
sVstockholm
p2686
I2686
sVh
p2687
I2687
sVentirely
p2688
I2688
sV10-minute
p2689
I2689
sVunloaded
p2690
I2690
sVen
p2691
I2691
sVeh
p2692
I2692
sVdirecting
p2693
I2693
sVyeah
p2694
I2694
sVeb
p2695
I2695
sVbradley
p2696
I2696
sVfires
p2697
I2697
sVex
p2698
I2698
sVyear
p2699
I2699
sVeu
p2700
I2700
sVhappen
p2701
I2701
sVteams
p2702
I2702
sVer
p2703
I2703
sVshown
p2704
I2704
sVopened
p2705
I2705
sVspace
p2706
I2706
sVantiwar
p2707
I2707
sVirony
p2708
I2708
sVbloodshed
p2709
I2709
sVlooking
p2710
I2710
sVrational
p2711
I2711
sVreceiving
p2712
I2712
sVshows
p2713
I2713
sVkan.
p2714
I2714
sVrebuilding
p2715
I2715
sVdefenses
p2716
I2716
sVcars
p2717
I2717
sVcart
p2718
I2718
sVbarak
p2719
I2719
sVunwanted
p2720
I2720
sVrebel
p2721
I2721
sVmarino
p2722
I2722
sVmarina
p2723
I2723
sVobligation
p2724
I2724
sVmarine
p2725
I2725
sVinevitable
p2726
I2726
sVcard
p2727
I2727
sVcare
p2728
I2728
sVtomahawk
p2729
I2729
sVvehemently
p2730
I2730
sVbritish
p2731
I2731
sVhonest
p2732
I2732
sVlindsey
p2733
I2733
sVpalaces
p2734
I2734
sVginsberg
p2735
I2735
sVblind
p2736
I2736
sVzao
p2737
I2737
sVromania
p2738
I2738
sVflying
p2739
I2739
sVstriking
p2740
I2740
sVagartala
p2741
I2741
sVdirectly
p2742
I2742
sVimpossible
p2743
I2743
sVring
p2744
I2744
sVdrove
p2745
I2745
sVtomorrow
p2746
I2746
sVsize
p2747
I2747
sVsheer
p2748
I2748
sVcaught
p2749
I2749
sVtragic
p2750
I2750
sVcarousel
p2751
I2751
sVyix
p2752
I2752
sVfriend
p2753
I2753
sVmostly
p2754
I2754
sVthat
p2755
I2755
sVpittsburgh
p2756
I2756
sVresulted
p2757
I2757
sV'70s
p2758
I2758
sVthae
p2759
I2759
sVtehran
p2760
I2760
sVeliminated
p2761
I2761
sVflowers
p2762
I2762
sVthan
p2763
I2763
sVtelevision
p2764
I2764
sVbolivia
p2765
I2765
sVtransferred
p2766
I2766
sVyoungstown
p2767
I2767
sVangel
p2768
I2768
sVremained
p2769
I2769
sVpremier
p2770
I2770
sVanger
p2771
I2771
sVbreakfast
p2772
I2772
sVrecover
p2773
I2773
sVwindsor
p2774
I2774
sVnuanced
p2775
I2775
sVveteran
p2776
I2776
sVpro-united
p2777
I2777
sVterrific
p2778
I2778
sVequipment
p2779
I2779
sVmr.
p2780
I2780
sVpacked
p2781
I2781
sVonline
p2782
I2782
sVobjective
p2783
I2783
sVbegin
p2784
I2784
sVprice
p2785
I2785
sVimportantly
p2786
I2786
sVamerica
p2787
I2787
sV]
p2788
I2788
sVmichelle
p2789
I2789
sVbishops
p2790
I2790
sVsteady
p2791
I2791
sVtooth
p2792
I2792
sVclearing
p2793
I2793
sVprofessional
p2794
I2794
sVabraham
p2795
I2795
sVtypically
p2796
I2796
sVfiling
p2797
I2797
sV7:30
p2798
I2798
sVrambling
p2799
I2799
sVgerman
p2800
I2800
sVmains
p2801
I2801
sVfifty
p2802
I2802
sVdiscovered
p2803
I2803
sVremnants
p2804
I2804
sVmaine
p2805
I2805
sVfifth
p2806
I2806
sV..are
p2807
I2807
sVtitle
p2808
I2808
sVanalyst
p2809
I2809
sVonly
p2810
I2810
sVdeveloped
p2811
I2811
sVthompson
p2812
I2812
sVcannon
p2813
I2813
sVkommersant
p2814
I2814
sVtruly
p2815
I2815
sVbaghdad
p2816
I2816
sVdeductions
p2817
I2817
sVcelebrate
p2818
I2818
sVpain-racked
p2819
I2819
sVsorrowfully
p2820
I2820
sVhusband
p2821
I2821
sVlasers
p2822
I2822
sVphysically
p2823
I2823
sVelected
p2824
I2824
sVnamely
p2825
I2825
sVactively
p2826
I2826
sVuva
p2827
I2827
sVeuropeans
p2828
I2828
sVisraeli
p2829
I2829
sVincite
p2830
I2830
sVbetween
p2831
I2831
sVjustified
p2832
I2832
sVwhipped
p2833
I2833
sVbroadcast.com
p2834
I2834
sVnotice
p2835
I2835
sVstateside
p2836
I2836
sVanti-bush
p2837
I2837
sVblame
p2838
I2838
sVarticle
p2839
I2839
sVjavier
p2840
I2840
sVinstallation
p2841
I2841
sVnile
p2842
I2842
sVsoekarnoputri
p2843
I2843
sVcomes
p2844
I2844
sVnearby
p2845
I2845
sVmadness
p2846
I2846
sVreprocessed
p2847
I2847
sVbooby-trapping
p2848
I2848
sVerbil
p2849
I2849
sVexploit
p2850
I2850
sVlearning
p2851
I2851
sVliberal
p2852
I2852
sVcharismatic
p2853
I2853
sVdomocratic
p2854
I2854
sVthumbs-up
p2855
I2855
sVrebuild
p2856
I2856
sVinformed
p2857
I2857
sVdictator
p2858
I2858
sVdangers
p2859
I2859
sVc-130
p2860
I2860
sVinformer
p2861
I2861
sVsystems
p2862
I2862
sVwonderful
p2863
I2863
sVledders
p2864
I2864
sVelvis
p2865
I2865
sVwounds
p2866
I2866
sVobservers
p2867
I2867
sVsuspected
p2868
I2868
sVmasonry
p2869
I2869
sVrealities
p2870
I2870
sVjoschka
p2871
I2871
sVdeveloping
p2872
I2872
sVthese
p2873
I2873
sVscud
p2874
I2874
sVcrowley
p2875
I2875
sVeditorial
p2876
I2876
sVchallengers
p2877
I2877
sVmining
p2878
I2878
sVmandating
p2879
I2879
sVsoil
p2880
I2880
sVcommander
p2881
I2881
sVcanceled
p2882
I2882
sVsudanese
p2883
I2883
sVpleads
p2884
I2884
sVembrace
p2885
I2885
sVsomebody
p2886
I2886
sVworry
p2887
I2887
sVnorthward
p2888
I2888
sVdevelop
p2889
I2889
sVinquire
p2890
I2890
sVmedia
p2891
I2891
sVmedic
p2892
I2892
sV2-zone
p2893
I2893
sVceo
p2894
I2894
sVfollowers
p2895
I2895
sVfinish
p2896
I2896
sVarctic
p2897
I2897
sVfruit
p2898
I2898
sVtradition
p2899
I2899
sVcomplained
p2900
I2900
sVtheater
p2901
I2901
sVcharges
p2902
I2902
sVmotivates
p2903
I2903
sVcongressmen
p2904
I2904
sVcharged
p2905
I2905
sVtaxi
p2906
I2906
sVu.s.-north
p2907
I2907
sVvaluable
p2908
I2908
sVnoaa
p2909
I2909
sV21-year-
p2910
I2910
sVtouch
p2911
I2911
sVspeed
p2912
I2912
sVdeath
p2913
I2913
sVstaging
p2914
I2914
sVeuros
p2915
I2915
sVthinking
p2916
I2916
sVtreatment
p2917
I2917
sVhara-
p2918
I2918
sVstruck
p2919
I2919
sVreal
p2920
I2920
sVconferees
p2921
I2921
sVread
p2922
I2922
sVpsd
p2923
I2923
sVearly
p2924
I2924
sVbushehr
p2925
I2925
sVlistening
p2926
I2926
sVsymbolism
p2927
I2927
sVusing
p2928
I2928
sVexecution
p2929
I2929
sVreap
p2930
I2930
sVruled
p2931
I2931
sVmartyrs
p2932
I2932
sVheightened
p2933
I2933
sVdislodged
p2934
I2934
sVpounds
p2935
I2935
sVconducts
p2936
I2936
sVmiracle
p2937
I2937
sVbenefit
p2938
I2938
sVt
p2939
I2939
sVfully
p2940
I2940
sVanimating
p2941
I2941
sVendorsed
p2942
I2942
sVenvoys
p2943
I2943
sVprivatization
p2944
I2944
sVunraveling
p2945
I2945
sVcapability
p2946
I2946
sVrecorded
p2947
I2947
sVhonorarium
p2948
I2948
sVconservative
p2949
I2949
sVbabysitter
p2950
I2950
sVdeficit
p2951
I2951
sVnon-profit
p2952
I2952
sVrebel-controlled
p2953
I2953
sVfractures
p2954
I2954
sVassembly
p2955
I2955
sVmullahs
p2956
I2956
sVbusiness
p2957
I2957
sVsixth
p2958
I2958
sVbalked
p2959
I2959
sVfractured
p2960
I2960
sVsadder
p2961
I2961
sVfondness
p2962
I2962
sVcentral
p2963
I2963
sVchoe
p2964
I2964
sVchop
p2965
I2965
sV'd
p2966
I2966
sVwolf
p2967
I2967
sVgreatly
p2968
I2968
sVunderway
p2969
I2969
sVinvested
p2970
I2970
sVprotests
p2971
I2971
sVinvolvement
p2972
I2972
sVelementary
p2973
I2973
sVyour
p2974
I2974
sVbag-toting
p2975
I2975
sVintervention
p2976
I2976
sVal-qaida
p2977
I2977
sVprepare
p2978
I2978
sVarea
p2979
I2979
sVassumed
p2980
I2980
sVlol
p2981
I2981
sVliana
p2982
I2982
sVstart
p2983
I2983
sVstealth
p2984
I2984
sVpoured
p2985
I2985
sVlow
p2986
I2986
sVlot
p2987
I2987
sVlou
p2988
I2988
sVallergic
p2989
I2989
sVjones
p2990
I2990
sVyou-
p2991
I2991
sVsmuggling
p2992
I2992
sVdelayed
p2993
I2993
sVknow-how
p2994
I2994
sV40,000
p2995
I2995
sVtwo-thirds
p2996
I2996
sVtrying
p2997
I2997
sVhappening
p2998
I2998
sVhire
p2999
I2999
sVfraud
p3000
I3000
sVisraeli-american-
p3001
I3001
sVcirculation
p3002
I3002
sVsadness
p3003
I3003
sVbeliefs
p3004
I3004
sVarabs
p3005
I3005
sVdescribe
p3006
I3006
sVmoved
p3007
I3007
sVsales
p3008
I3008
sVcountermeasures
p3009
I3009
sVsaleh
p3010
I3010
sVmoves
p3011
I3011
sVhospitals
p3012
I3012
sVcabinets
p3013
I3013
sVcredibility
p3014
I3014
sVstorage
p3015
I3015
sVterminating
p3016
I3016
sVevenings
p3017
I3017
sVfools
p3018
I3018
sVforcing
p3019
I3019
sVpoor
p3020
I3020
sVprecedant
p3021
I3021
sVairplanes
p3022
I3022
sVwields
p3023
I3023
sVpeak
p3024
I3024
sVcoverage
p3025
I3025
sVharricks
p3026
I3026
sVpool
p3027
I3027
sVbuilding
p3028
I3028
sVyo-
p3029
I3029
sVyukos
p3030
I3030
sV*without
p3031
I3031
sVstockpile
p3032
I3032
sVembracing
p3033
I3033
sVoverseas
p3034
I3034
sVjoins
p3035
I3035
sVoutlining
p3036
I3036
sVsince
p3037
I3037
sVskeleton
p3038
I3038
sVpointing
p3039
I3039
sVmonth
p3040
I3040
sVunrest
p3041
I3041
sVmessy
p3042
I3042
sVmanaged
p3043
I3043
sVreligious
p3044
I3044
sVcarpet
p3045
I3045
sVreferring
p3046
I3046
sV81,615.42
p3047
I3047
sVfoster
p3048
I3048
sVclerics
p3049
I3049
sVkrispy
p3050
I3050
sVpledges
p3051
I3051
sVwmd
p3052
I3052
sVconfidential
p3053
I3053
sVhomes
p3054
I3054
sVvery
p3055
I3055
sVhorror
p3056
I3056
sVsouls
p3057
I3057
sVdecide
p3058
I3058
sVheaven
p3059
I3059
sV--
p3060
I3060
sVlouis
p3061
I3061
sVthree-stage
p3062
I3062
sVcircuit
p3063
I3063
sVbulldozing
p3064
I3064
sVcookies
p3065
I3065
sVapproximately
p3066
I3066
sVstreets
p3067
I3067
sVgreenspan
p3068
I3068
sVdarkness
p3069
I3069
sVsurngd
p3070
I3070
sVwitnesses
p3071
I3071
sVlearned
p3072
I3072
sVmultinational
p3073
I3073
sVturmoil
p3074
I3074
sVweeklong
p3075
I3075
sVferocious
p3076
I3076
sVloose
p3077
I3077
sVhumvees
p3078
I3078
sVanswers
p3079
I3079
sVtrunk
p3080
I3080
sVstrong
p3081
I3081
sVarena
p3082
I3082
sVahead
p3083
I3083
sVlosses
p3084
I3084
sVtverneftemash
p3085
I3085
sVfired
p3086
I3086
sVsoldier
p3087
I3087
sVamount
p3088
I3088
sVsuccessors
p3089
I3089
sVfamily
p3090
I3090
sVmediator
p3091
I3091
sVrequiring
p3092
I3092
sVput
p3093
I3093
sVaimed
p3094
I3094
sVtrained
p3095
I3095
sVtoys
p3096
I3096
sVgunmen
p3097
I3097
sVattendant
p3098
I3098
sVconventional
p3099
I3099
sV81,615
p3100
I3100
sVkhan
p3101
I3101
sVtakes
p3102
I3102
sVinjure
p3103
I3103
sVcontains
p3104
I3104
sVheroic
p3105
I3105
sVmysterious
p3106
I3106
sVinjury
p3107
I3107
sVauthorization
p3108
I3108
sVejected
p3109
I3109
sVjr.
p3110
I3110
sVexcuse
p3111
I3111
sVbroke
p3112
I3112
sVhurry
p3113
I3113
sVproducing
p3114
I3114
sVsovereignty
p3115
I3115
sVrespected
p3116
I3116
sVsingle-file
p3117
I3117
sVpollack
p3118
I3118
sVsweeps
p3119
I3119
sVnine
p3120
I3120
sVyemen
p3121
I3121
sVspontaneous
p3122
I3122
sVevian
p3123
I3123
sVhistory
p3124
I3124
sValbo
p3125
I3125
sVadviser
p3126
I3126
sVboycott
p3127
I3127
sVpushed
p3128
I3128
sVdishonors
p3129
I3129
sVun-imposed
p3130
I3130
sVlacks
p3131
I3131
sVarabic
p3132
I3132
sVfirmly
p3133
I3133
sVstayed
p3134
I3134
sVforeseen
p3135
I3135
sVwigs
p3136
I3136
sVal-sheikh
p3137
I3137
sVtried
p3138
I3138
sVrude
p3139
I3139
sVsneak
p3140
I3140
sVidiocy
p3141
I3141
sVroadblocks
p3142
I3142
sVsyria
p3143
I3143
sVinvasion
p3144
I3144
sVeustachy
p3145
I3145
sVfl
p3146
I3146
sVa
p3147
I3147
sVcontrived
p3148
I3148
sVcriticize
p3149
I3149
sVovernight
p3150
I3150
sVsodomy
p3151
I3151
sVtelephones
p3152
I3152
sVbanks
p3153
I3153
sVy-
p3154
I3154
sVhelp
p3155
I3155
sVoil-for-food
p3156
I3156
sVsoon
p3157
I3157
sVauburn
p3158
I3158
sVheld
p3159
I3159
sVcommittee
p3160
I3160
sVcommitted
p3161
I3161
sVhelm
p3162
I3162
sVhell
p3163
I3163
sVfanning
p3164
I3164
sVbotched
p3165
I3165
sVsolving
p3166
I3166
sVactually
p3167
I3167
sVabsence
p3168
I3168
sVdisclosed
p3169
I3169
sVif-
p3170
I3170
sVpost-war
p3171
I3171
sVevening
p3172
I3172
sVmotivated
p3173
I3173
sVfood
p3174
I3174
sVgrandfathers
p3175
I3175
sVstarbucks
p3176
I3176
sVfoot
p3177
I3177
sVtraveled
p3178
I3178
sVshort-range
p3179
I3179
sVbryan
p3180
I3180
sVfulls
p3181
I3181
sVbaliles
p3182
I3182
sVimprisoned
p3183
I3183
sVmolotov
p3184
I3184
sVscumbag
p3185
I3185
sVintervene
p3186
I3186
sVsemiannual
p3187
I3187
sVbless
p3188
I3188
sVrust-colored
p3189
I3189
sVstopped
p3190
I3190
sVapartheid
p3191
I3191
sVreferred
p3192
I3192
sVheavy
p3193
I3193
sVgive-away
p3194
I3194
sVstandoff
p3195
I3195
sVjaws
p3196
I3196
sVwacky
p3197
I3197
sVdemocrat
p3198
I3198
sVtodd
p3199
I3199
sVinspections
p3200
I3200
sVbeyond
p3201
I3201
sVevent
p3202
I3202
sVjamuna
p3203
I3203
sVrobert
p3204
I3204
sVsurrounded
p3205
I3205
sVtestify
p3206
I3206
sVdouglas
p3207
I3207
sVsafety
p3208
I3208
sVissue
p3209
I3209
sVbald
p3210
I3210
sVhoused
p3211
I3211
sVfavored
p3212
I3212
sVal-jazeera
p3213
I3213
sVpub
p3214
I3214
sVdarius
p3215
I3215
sVhouses
p3216
I3216
sVreason
p3217
I3217
sVbase
p3218
I3218
sVask
p3219
I3219
sVmatthews
p3220
I3220
sVash
p3221
I3221
sVcurtailed
p3222
I3222
sVrevolutionary
p3223
I3223
sVzarqawi
p3224
I3224
sVlaunch
p3225
I3225
sVsheikh
p3226
I3226
sVcheering
p3227
I3227
sVamerican
p3228
I3228
sVexpecting
p3229
I3229
sVscheduled
p3230
I3230
sVheartbeat
p3231
I3231
sVteterboro
p3232
I3232
sV-with
p3233
I3233
sVfischer
p3234
I3234
sVreflected
p3235
I3235
sVhebron
p3236
I3236
sVelder
p3237
I3237
sVtwo-man
p3238
I3238
sVunexpected
p3239
I3239
sVarbitration
p3240
I3240
sVhorse
p3241
I3241
sVst.
p3242
I3242
sVlejeune
p3243
I3243
sVairborne
p3244
I3244
sVstation
p3245
I3245
sVexpand
p3246
I3246
sVhandshakes
p3247
I3247
sVhundred
p3248
I3248
sVbechtel
p3249
I3249
sVgibraltar
p3250
I3250
sVwolfowitz
p3251
I3251
sVselling
p3252
I3252
sVpassed
p3253
I3253
sVtrapped
p3254
I3254
sVjamie
p3255
I3255
sVjordan
p3256
I3256
sVboredom
p3257
I3257
sVnco
p3258
I3258
sVnca
p3259
I3259
sValbums
p3260
I3260
sVcenter
p3261
I3261
sVgrocery
p3262
I3262
sVassaulted
p3263
I3263
sVstl
p3264
I3264
sVanticipate
p3265
I3265
sVbride
p3266
I3266
sVgreg
p3267
I3267
sViraq-kuwait
p3268
I3268
sVrecovered
p3269
I3269
sVtoward
p3270
I3270
sVprocedural
p3271
I3271
sVsentenced
p3272
I3272
sVcharlotte
p3273
I3273
sVcontraception
p3274
I3274
sVurgently
p3275
I3275
sValongside
p3276
I3276
sVairstrike
p3277
I3277
sVcomrades
p3278
I3278
sVsentences
p3279
I3279
sVconcentration
p3280
I3280
sVgov't
p3281
I3281
sVkarl
p3282
I3282
sVoption
p3283
I3283
sVlie
p3284
I3284
sVu.s
p3285
I3285
sVempowered
p3286
I3286
sVbasson
p3287
I3287
sVofficers
p3288
I3288
sVlit
p3289
I3289
sVliu
p3290
I3290
sVlabour
p3291
I3291
sVcaliphate
p3292
I3292
sVu.n
p3293
I3293
sVaired
p3294
I3294
sVtowards
p3295
I3295
sVquote
p3296
I3296
sVsoured
p3297
I3297
sVhired
p3298
I3298
sVeaten
p3299
I3299
sVkay
p3300
I3300
sVapproved
p3301
I3301
sVaberrations
p3302
I3302
sVbaddly
p3303
I3303
sVviciously
p3304
I3304
sVmobile
p3305
I3305
sVperformances
p3306
I3306
sVclear
p3307
I3307
sVrockefeller
p3308
I3308
sVfifty-two
p3309
I3309
sVfiercest
p3310
I3310
sVrifle
p3311
I3311
sVcelebrities
p3312
I3312
sVtenet
p3313
I3313
sVrestructure
p3314
I3314
sVsurveyer
p3315
I3315
sVnorthern
p3316
I3316
sVjustice
p3317
I3317
sVconvinced
p3318
I3318
sVflights
p3319
I3319
sVpretty
p3320
I3320
sVcircle
p3321
I3321
sVpolicing
p3322
I3322
sVmehdi
p3323
I3323
sVmeanwhile
p3324
I3324
sVwagner
p3325
I3325
sVfinancing
p3326
I3326
sVfeels
p3327
I3327
sVgrew
p3328
I3328
sVpretending
p3329
I3329
sVbasement
p3330
I3330
sVduring
p3331
I3331
sValexander
p3332
I3332
sVgloved
p3333
I3333
sVleft-wing
p3334
I3334
sVretaliation
p3335
I3335
sVwithdrawal
p3336
I3336
sVswitzerland
p3337
I3337
sVpoisoned
p3338
I3338
sVmaurice
p3339
I3339
sVthrowing
p3340
I3340
sVprague
p3341
I3341
sVplausible
p3342
I3342
sVmanning
p3343
I3343
sVdescriptions
p3344
I3344
sVclose
p3345
I3345
sVconstellation
p3346
I3346
sVdeploying
p3347
I3347
sVpractice
p3348
I3348
sVprobable
p3349
I3349
sVpictures
p3350
I3350
sVwon
p3351
I3351
sVprobably
p3352
I3352
sVconditions
p3353
I3353
sVpiss
p3354
I3354
sVunconscious
p3355
I3355
sVmissing
p3356
I3356
sVrodong
p3357
I3357
sVaqaba
p3358
I3358
sVhardline
p3359
I3359
sVabruptly
p3360
I3360
sVboth
p3361
I3361
sVnear-simultaneous
p3362
I3362
sVzigeuner
p3363
I3363
sVsecond-largest
p3364
I3364
sVbuzz
p3365
I3365
sVrodgers
p3366
I3366
sVgovernment-held
p3367
I3367
sVcentcom
p3368
I3368
sVjeff
p3369
I3369
sVbattery
p3370
I3370
sVwhatever
p3371
I3371
sVskips
p3372
I3372
sVvessel
p3373
I3373
sVdescribed
p3374
I3374
sVmacau
p3375
I3375
sVstamp
p3376
I3376
sVoutstanding
p3377
I3377
sVmaintenance
p3378
I3378
sVairstrikes
p3379
I3379
sVthreaten
p3380
I3380
sVterritory
p3381
I3381
sVwalter
p3382
I3382
sVimam
p3383
I3383
sVsanders
p3384
I3384
sVlived
p3385
I3385
sVal-biyari
p3386
I3386
sVlives
p3387
I3387
sVcompromised
p3388
I3388
sVlook
p3389
I3389
sVconspirator
p3390
I3390
sVvillagers
p3391
I3391
sVsocialist
p3392
I3392
sVtver
p3393
I3393
sVnorgay
p3394
I3394
sVgovernor
p3395
I3395
sVpace
p3396
I3396
sVwhile
p3397
I3397
sVconfederacy
p3398
I3398
sVfleet
p3399
I3399
sVguide
p3400
I3400
sVpack
p3401
I3401
sVsmacked
p3402
I3402
sVcostly
p3403
I3403
sVvoters
p3404
I3404
sVwherever
p3405
I3405
sVhoax
p3406
I3406
sVsluice
p3407
I3407
sVreads
p3408
I3408
sVready
p3409
I3409
sValbany
p3410
I3410
sVclerical
p3411
I3411
sVanymore
p3412
I3412
sVgrant
p3413
I3413
sV1999-2000
p3414
I3414
sVshackle
p3415
I3415
sVvulnerable
p3416
I3416
sVgrand
p3417
I3417
sVshah
p3418
I3418
sVconflict
p3419
I3419
sVused
p3420
I3420
sVlawyers
p3421
I3421
sVblair
p3422
I3422
sV42nd
p3423
I3423
sVyoungsters
p3424
I3424
sVuses
p3425
I3425
sVyeltsin
p3426
I3426
sVbrussels
p3427
I3427
sVkurdish
p3428
I3428
sVencircle
p3429
I3429
sVolder
p3430
I3430
sVanxious
p3431
I3431
sVhaul
p3432
I3432
sVobviously
p3433
I3433
sVmcchrystal
p3434
I3434
sVself-confessed
p3435
I3435
sVgran-
p3436
I3436
sVyankees
p3437
I3437
sVambassador
p3438
I3438
sVsettlements
p3439
I3439
sVquarters
p3440
I3440
sVuseful
p3441
I3441
sVtaiwan
p3442
I3442
sVhelping
p3443
I3443
sV$
p3444
I3444
sVwounding
p3445
I3445
sVinformal
p3446
I3446
sVcemetery
p3447
I3447
sVquestioned
p3448
I3448
sVballots
p3449
I3449
sVguarantees
p3450
I3450
sVtransformation
p3451
I3451
sV...
p3452
I3452
sVmarch
p3453
I3453
sVlacking
p3454
I3454
sVshowing
p3455
I3455
sVgame
p3456
I3456
sVoverthrown
p3457
I3457
sVoutright
p3458
I3458
sVparamilitary
p3459
I3459
sVsuccess
p3460
I3460
sVoncoming
p3461
I3461
sVtoyota
p3462
I3462
sVprovoking
p3463
I3463
sVdonna
p3464
I3464
sVpopular
p3465
I3465
sVinfecting
p3466
I3466
sVcreation
p3467
I3467
sVsome
p3468
I3468
sVeconomic
p3469
I3469
sVanti-american
p3470
I3470
sVcriminalising
p3471
I3471
sVdelivered
p3472
I3472
sVqatar
p3473
I3473
sVdescribing
p3474
I3474
sVconditionally
p3475
I3475
sVdeducts
p3476
I3476
sVminimal
p3477
I3477
sVfoley
p3478
I3478
sVeverybody
p3479
I3479
sVclaimed
p3480
I3480
sVeating
p3481
I3481
sVprocessing
p3482
I3482
sVstep
p3483
I3483
sVabroad
p3484
I3484
sVfaith
p3485
I3485
sVworks
p3486
I3486
sVletup
p3487
I3487
sVblocs
p3488
I3488
sVpapua
p3489
I3489
sVcongressman
p3490
I3490
sVsilence
p3491
I3491
sVseeing
p3492
I3492
sVwithin
p3493
I3493
sVguangdong
p3494
I3494
sVpentagon
p3495
I3495
sVcomputer
p3496
I3496
sVconsultation
p3497
I3497
sVfootage
p3498
I3498
sVrees
p3499
I3499
sVregistered
p3500
I3500
sVreiterated
p3501
I3501
sVlarry
p3502
I3502
sVreed
p3503
I3503
sVauthority
p3504
I3504
sVrussian
p3505
I3505
sVceremonies
p3506
I3506
sVfda
p3507
I3507
sVcruisecritic
p3508
I3508
sVsifting
p3509
I3509
sVpsychosis
p3510
I3510
sVfdr
p3511
I3511
sVaccustomed
p3512
I3512
sVsimilar
p3513
I3513
sVslow-and-steady
p3514
I3514
sVordered
p3515
I3515
sVplatsberg
p3516
I3516
sVturtletaub
p3517
I3517
sVunreasonable
p3518
I3518
sVunwise
p3519
I3519
sVamounts
p3520
I3520
sVfears
p3521
I3521
sVapplication
p3522
I3522
sVpoliticians
p3523
I3523
sVelectrical
p3524
I3524
sVtransport
p3525
I3525
sVnat
p3526
I3526
sVdepartment
p3527
I3527
sVacceptable
p3528
I3528
sVarithmetic
p3529
I3529
sVwished
p3530
I3530
sVsmiles
p3531
I3531
sVdraw
p3532
I3532
sVreportedly
p3533
I3533
sVre-election
p3534
I3534
sVkansas
p3535
I3535
sVresign
p3536
I3536
sVwilliam
p3537
I3537
sVmilitants
p3538
I3538
sVoregon
p3539
I3539
sVwedding/renewal
p3540
I3540
sVhighlighting
p3541
I3541
sVmccombs
p3542
I3542
sVrevamped
p3543
I3543
sVurged
p3544
I3544
sVmegawati
p3545
I3545
sVresolving
p3546
I3546
sVorbit
p3547
I3547
sVneighbouring
p3548
I3548
sVrequires
p3549
I3549
sVsounded
p3550
I3550
sVcabinet-level
p3551
I3551
sVairliners
p3552
I3552
sVgo
p3553
I3553
sVgi
p3554
I3554
sVmarginalisation
p3555
I3555
sVmosque
p3556
I3556
sVarrogance
p3557
I3557
sVattackers
p3558
I3558
sVanti-semitism
p3559
I3559
sV'cleared
p3560
I3560
sVfriendly
p3561
I3561
sVrelocated
p3562
I3562
sVwave
p3563
I3563
sVnichols
p3564
I3564
sVcellular
p3565
I3565
sVtelling
p3566
I3566
sVg-
p3567
I3567
sVexits
p3568
I3568
sVstiff
p3569
I3569
sVmeant
p3570
I3570
sVgender
p3571
I3571
sVunusual
p3572
I3572
sVmichael
p3573
I3573
sVzeming
p3574
I3574
sVbarbara
p3575
I3575
sVquoting
p3576
I3576
sVcompensated
p3577
I3577
sVriyadh
p3578
I3578
sVpunishing
p3579
I3579
sVblitz
p3580
I3580
sVkirkuk
p3581
I3581
sVpicked
p3582
I3582
sVnotwithstanding
p3583
I3583
sVplays
p3584
I3584
sVcolonel
p3585
I3585
sVcell
p3586
I3586
sVevoked
p3587
I3587
sVvolatile
p3588
I3588
sVcollins
p3589
I3589
sV;
p3590
I3590
sVtournaments
p3591
I3591
sVdenunciations
p3592
I3592
sVstance
p3593
I3593
sVcommercial
p3594
I3594
sVfollowing
p3595
I3595
sVquell
p3596
I3596
sVfocused
p3597
I3597
sVkidnapped
p3598
I3598
sVarrive
p3599
I3599
sVkissinger
p3600
I3600
sVwithdrawing
p3601
I3601
sVoverseen
p3602
I3602
sVwva
p3603
I3603
sVrantissi
p3604
I3604
sVdaybreak
p3605
I3605
sVairspace
p3606
I3606
sVdanger
p3607
I3607
sVwin
p3608
I3608
sVcloud
p3609
I3609
sVstrapped
p3610
I3610
sVremains
p3611
I3611
sVhudson
p3612
I3612
sVcamera
p3613
I3613
sVvehicle
p3614
I3614
sVhiding
p3615
I3615
sVgogh
p3616
I3616
sVhistorically
p3617
I3617
sVindefensible
p3618
I3618
sVcheeks
p3619
I3619
sVba'quba
p3620
I3620
sV1/2
p3621
I3621
sVstarted
p3622
I3622
sVstatutes
p3623
I3623
sVtestified
p3624
I3624
sVmissile
p3625
I3625
sVisraelis
p3626
I3626
sVallys
p3627
I3627
sVwarplanes
p3628
I3628
sVappointed
p3629
I3629
sVcommitee
p3630
I3630
sVannouncing
p3631
I3631
sVsanctions
p3632
I3632
sVsalam
p3633
I3633
sVrecession
p3634
I3634
sVchui
p3635
I3635
sVbaikalfinansgroup
p3636
I3636
sVcrossed
p3637
I3637
sVmeet
p3638
I3638
sVnurture
p3639
I3639
sVdrops
p3640
I3640
sVcontrol
p3641
I3641
sVbeijing
p3642
I3642
sVkenny
p3643
I3643
sVhalloween
p3644
I3644
sVescaped
p3645
I3645
sVus-canada
p3646
I3646
sVpulling
p3647
I3647
sVsought
p3648
I3648
sVfounding
p3649
I3649
sVskirt
p3650
I3650
sVairavacked
p3651
I3651
sVhesitate
p3652
I3652
sVjails
p3653
I3653
sVafricans
p3654
I3654
sVarrangement
p3655
I3655
sVlaurouse
p3656
I3656
sVlocated
p3657
I3657
sVsentiments
p3658
I3658
sVfarc
p3659
I3659
sVfarm
p3660
I3660
sVchiefs
p3661
I3661
sVrations
p3662
I3662
sVadvocated
p3663
I3663
sVmanhattan
p3664
I3664
sVcapsule
p3665
I3665
sVadvocates
p3666
I3666
sVagenda
p3667
I3667
sVlatifiya
p3668
I3668
sVkre
p3669
I3669
sVunsolved
p3670
I3670
sVfacilitated
p3671
I3671
sVsperm
p3672
I3672
sVoffences
p3673
I3673
sVgunman
p3674
I3674
sVcruise
p3675
I3675
sVmentioned
p3676
I3676
sVjacque
p3677
I3677
sVhelicopters
p3678
I3678
sVouter
p3679
I3679
sVguerrilla
p3680
I3680
sVbackers
p3681
I3681
sVhim
p3682
I3682
sVgovernment-led
p3683
I3683
sVoverflights
p3684
I3684
sVsurrounds
p3685
I3685
sVrelentless
p3686
I3686
sVhands
p3687
I3687
sVfront
p3688
I3688
sVrefuel
p3689
I3689
sVpre-war
p3690
I3690
sVuniversity
p3691
I3691
sVplayoff
p3692
I3692
sVregistrations
p3693
I3693
sVslide
p3694
I3694
sVfirings
p3695
I3695
sVcrossing
p3696
I3696
sVshaking
p3697
I3697
sVankles
p3698
I3698
sVmischie
p3699
I3699
sVchunk
p3700
I3700
sVserbia
p3701
I3701
sVconstitute
p3702
I3702
sV24-year-old
p3703
I3703
sVmeasure
p3704
I3704
sVmargins
p3705
I3705
sVspecial
p3706
I3706
sVexplorer
p3707
I3707
sVsecretly
p3708
I3708
sVmcmahon
p3709
I3709
sVentertainment
p3710
I3710
sVarmor
p3711
I3711
sVmay
p3712
I3712
sVactivist
p3713
I3713
sVcause
p3714
I3714
sVblasting
p3715
I3715
sVquinn
p3716
I3716
sVairstrip
p3717
I3717
sVspot
p3718
I3718
sVwithering
p3719
I3719
sVdelegates
p3720
I3720
sVattending
p3721
I3721
sVcompletely
p3722
I3722
sVadvisor
p3723
I3723
sVprincess
p3724
I3724
sVresumed
p3725
I3725
sV95th
p3726
I3726
sVroute
p3727
I3727
sVflorida
p3728
I3728
sVconfident
p3729
I3729
sVtimes
p3730
I3730
sVcounterpart
p3731
I3731
sVtimed
p3732
I3732
sVaustin
p3733
I3733
sVabdallah
p3734
I3734
sVsucceeds
p3735
I3735
sVpowerful
p3736
I3736
sVcongo
p3737
I3737
sVstump
p3738
I3738
sVprecisely
p3739
I3739
sVlong
p3740
I3740
sVpractitioners
p3741
I3741
sVbe-
p3742
I3742
sVbears
p3743
I3743
sVdata
p3744
I3744
sVrelations
p3745
I3745
sVsumatra
p3746
I3746
sVmao
p3747
I3747
sVvile
p3748
I3748
sVperfectly
p3749
I3749
sVfinal
p3750
I3750
sVpunish
p3751
I3751
sVexactly
p3752
I3752
sVminute
p3753
I3753
sVtractor-trailers
p3754
I3754
sVdjindjic
p3755
I3755
sVoverwhelming
p3756
I3756
sVherself
p3757
I3757
sVben
p3758
I3758
sVculture
p3759
I3759
sVsubmitted
p3760
I3760
sVsoviets
p3761
I3761
sVproviding
p3762
I3762
sVdistinguished
p3763
I3763
sVbet
p3764
I3764
sVaftery
p3765
I3765
sVlightly
p3766
I3766
sVjourney
p3767
I3767
sVsucccessful
p3768
I3768
sVhorrors
p3769
I3769
sVportrait
p3770
I3770
sVneed
p3771
I3771
sVinterrogating
p3772
I3772
sVborder
p3773
I3773
sVleonhard
p3774
I3774
sVscrew
p3775
I3775
sVcranes
p3776
I3776
sVable
p3777
I3777
sVbattles
p3778
I3778
sVgunner
p3779
I3779
sVinstance
p3780
I3780
sVrelatives
p3781
I3781
sVissuing
p3782
I3782
sVlocals
p3783
I3783
sVtactic
p3784
I3784
sVbattled
p3785
I3785
sVmedals
p3786
I3786
sVdeploy
p3787
I3787
sVunleash
p3788
I3788
sVthorns
p3789
I3789
sVmontana
p3790
I3790
sVbut
p3791
I3791
sVpalace
p3792
I3792
sVawe
p3793
I3793
sVexpired
p3794
I3794
sVhaifa
p3795
I3795
sVeject
p3796
I3796
sVsg
p3797
I3797
sVpsychological
p3798
I3798
sVscrambled
p3799
I3799
sVaffair
p3800
I3800
sVparker
p3801
I3801
sVviolation
p3802
I3802
sVanyway
p3803
I3803
sVhalting
p3804
I3804
sVparked
p3805
I3805
sVsoldiers
p3806
I3806
sVhigh-level
p3807
I3807
sV~us
p3808
I3808
sVpartners
p3809
I3809
sVbased
p3810
I3810
sV(
p3811
I3811
sVwinner
p3812
I3812
sVhopeful
p3813
I3813
sVemployer
p3814
I3814
sVbases
p3815
I3815
sVemployee
p3816
I3816
sVemployed
p3817
I3817
sVhassles
p3818
I3818
sVcrumbling
p3819
I3819
sVmichigan
p3820
I3820
sVoverall
p3821
I3821
sVmgm
p3822
I3822
sVb-2
p3823
I3823
sVjoint
p3824
I3824
sVb-1
p3825
I3825
sVlegitimate
p3826
I3826
sVfallout
p3827
I3827
sVbuyer
p3828
I3828
sVargues
p3829
I3829
sVprocedures
p3830
I3830
sVendless
p3831
I3831
sVevolution
p3832
I3832
sVevident
p3833
I3833
sV30-kilo
p3834
I3834
sVhiring
p3835
I3835
sVshy
p3836
I3836
sVmohammed
p3837
I3837
sVshe
p3838
I3838
sVdangerous
p3839
I3839
sVflogged
p3840
I3840
sVwidow
p3841
I3841
sVaccuses
p3842
I3842
sVprayers
p3843
I3843
sVhumans
p3844
I3844
sVfreeze
p3845
I3845
sVobliterating
p3846
I3846
sVreinforce
p3847
I3847
sVltlee
p3848
I3848
sVdriveway
p3849
I3849
sVdesperate
p3850
I3850
sVshepherdstown
p3851
I3851
sVhorribly
p3852
I3852
sVtend
p3853
I3853
sVstate
p3854
I3854
sVhorrible
p3855
I3855
sVtens
p3856
I3856
sVneither
p3857
I3857
sVtent
p3858
I3858
sVken
p3859
I3859
sVimportance
p3860
I3860
sVkicking
p3861
I3861
sVkey
p3862
I3862
sVpolice
p3863
I3863
sVmujahideen
p3864
I3864
sVdistribution
p3865
I3865
sVthank
p3866
I3866
sVhits
p3867
I3867
sVlimits
p3868
I3868
sVminds
p3869
I3869
sVhop-on/hop-off
p3870
I3870
sVadmit
p3871
I3871
sVa.m.
p3872
I3872
sVqawasmeh
p3873
I3873
sVjersey
p3874
I3874
sVjim
p3875
I3875
sVdiplomats
p3876
I3876
sVcolonisation
p3877
I3877
sVtori
p3878
I3878
sVtuesday
p3879
I3879
sVdenise
p3880
I3880
sVquit
p3881
I3881
sVaddition
p3882
I3882
sVdeaths
p3883
I3883
sVcent
p3884
I3884
sVlow-flying
p3885
I3885
sVslowly
p3886
I3886
sVtreat
p3887
I3887
sVsars
p3888
I3888
sVhernandez
p3889
I3889
sVkingston
p3890
I3890
sVcontrolled
p3891
I3891
sVleague
p3892
I3892
sVvince
p3893
I3893
sVreleasing
p3894
I3894
sVpie
p3895
I3895
sVmail
p3896
I3896
sVsmoking
p3897
I3897
sVshun-ville
p3898
I3898
sVstinnett
p3899
I3899
sVharder
p3900
I3900
sVencircled
p3901
I3901
sVpiloting
p3902
I3902
sVresident
p3903
I3903
sVsurface
p3904
I3904
sVswinging
p3905
I3905
sVkosovar
p3906
I3906
sVbucks
p3907
I3907
sVcapture
p3908
I3908
sV-year-old
p3909
I3909
sVseoul
p3910
I3910
sVparts
p3911
I3911
sVspeaker
p3912
I3912
sVnorthwest
p3913
I3913
sVincumbent
p3914
I3914
sVrecliners
p3915
I3915
sVparty
p3916
I3916
sVexperimented
p3917
I3917
sVunconventional
p3918
I3918
sVdiyala
p3919
I3919
sVappearances
p3920
I3920
sVforgotten
p3921
I3921
sV17-year-old
p3922
I3922
sV`we
p3923
I3923
sVfierce
p3924
I3924
sVfrequently
p3925
I3925
sVdestruction
p3926
I3926
sVrift
p3927
I3927
sVtransaction
p3928
I3928
sVi
p3929
I3929
sVmodeled
p3930
I3930
sVwell
p3931
I3931
sVstoplight
p3932
I3932
sVdressed
p3933
I3933
sVrestore
p3934
I3934
sVincreasingly
p3935
I3935
sVaccurate
p3936
I3936
sVweekend
p3937
I3937
sVliked
p3938
I3938
sVmistaken
p3939
I3939
sVmissle
p3940
I3940
sVsources
p3941
I3941
sVdistant
p3942
I3942
sVsharif
p3943
I3943
sVcoordination
p3944
I3944
sVspells
p3945
I3945
sVbegala
p3946
I3946
sVheaded
p3947
I3947
sVnato
p3948
I3948
sVkick
p3949
I3949
sVfate
p3950
I3950
sVmunich
p3951
I3951
sVhistoric
p3952
I3952
sVimmediately
p3953
I3953
sVprominent
p3954
I3954
sVloss
p3955
I3955
sVlincoln
p3956
I3956
sVnecessary
p3957
I3957
sVlost
p3958
I3958
sVdonovin
p3959
I3959
sVcandy
p3960
I3960
sVroth
p3961
I3961
sVpayments
p3962
I3962
sVlose
p3963
I3963
sVrefugees
p3964
I3964
sVshed
p3965
I3965
sVglare
p3966
I3966
sVjacked
p3967
I3967
sVsaiga
p3968
I3968
sVvillage
p3969
I3969
sVmotive
p3970
I3970
sVcleveland
p3971
I3971
sVhome
p3972
I3972
sVliking
p3973
I3973
sVpeter
p3974
I3974
sVbefore-
p3975
I3975
sVbroad
p3976
I3976
sVe-mail
p3977
I3977
sVintersections
p3978
I3978
sV?
p3979
I3979
sVlimitations
p3980
I3980
sVreaching
p3981
I3981
sVjournal
p3982
I3982
sVmonetary
p3983
I3983
sVbalkans
p3984
I3984
sVprohibited
p3985
I3985
sV17,000
p3986
I3986
sVchoked
p3987
I3987
sVmisrepresentation
p3988
I3988
sVquarter
p3989
I3989
sVfreedom
p3990
I3990
sVizzah
p3991
I3991
sVpersuaded
p3992
I3992
sV13-year-old
p3993
I3993
sVcelebrations
p3994
I3994
sVpreviously
p3995
I3995
sVwashington
p3996
I3996
sVarticulate
p3997
I3997
sVh.
p3998
I3998
sVdug
p3999
I3999
sVaccused
p4000
I4000
sVadditional
p4001
I4001
sVnoticed
p4002
I4002
sVaccountant
p4003
I4003
sVinner
p4004
I4004
sVnasiriya
p4005
I4005
sVwatchword
p4006
I4006
sVdolphins
p4007
I4007
sVbutai
p4008
I4008
sVmylan
p4009
I4009
sVwilliamson
p4010
I4010
sVnorth
p4011
I4011
sVhs
p4012
I4012
sVhq
p4013
I4013
sVgeneralship
p4014
I4014
sVhu
p4015
I4015
sVjubilation
p4016
I4016
sVneutral
p4017
I4017
sVgain
p4018
I4018
sVcourts
p4019
I4019
sVhm
p4020
I4020
sVhighest
p4021
I4021
sVeat
p4022
I4022
sVhe
p4023
I4023
sVcells
p4024
I4024
sVsigned
p4025
I4025
sVstories
p4026
I4026
sVpiece
p4027
I4027
sVdisplay
p4028
I4028
sVurging
p4029
I4029
sVmechanics
p4030
I4030
sVuniversal
p4031
I4031
sVpenny
p4032
I4032
sVtwist
p4033
I4033
sViman
p4034
I4034
sVeducation
p4035
I4035
sVcavalry
p4036
I4036
sVfunctions
p4037
I4037
sVrumors
p4038
I4038
sVcontest
p4039
I4039
sVoffensive
p4040
I4040
sVparatroopers
p4041
I4041
sVwestminster
p4042
I4042
sVenvisages
p4043
I4043
sVtrebling
p4044
I4044
sVblunders
p4045
I4045
sVstar
p4046
I4046
sVstay
p4047
I4047
sVstab
p4048
I4048
sVadditionally
p4049
I4049
sVelse
p4050
I4050
sVfriends
p4051
I4051
sVappoint
p4052
I4052
sVsirlester
p4053
I4053
sVparole
p4054
I4054
sVlakeland
p4055
I4055
sVportion
p4056
I4056
sVdiagnosis
p4057
I4057
sVdetermination
p4058
I4058
sVobstruction
p4059
I4059
sVprotest
p4060
I4060
sVasian
p4061
I4061
sVundersecretary
p4062
I4062
sVwhose
p4063
I4063
sVfronts
p4064
I4064
sVbuddy
p4065
I4065
sVaum
p4066
I4066
sVpensions
p4067
I4067
sVp.l.o
p4068
I4068
sVoffending
p4069
I4069
sVteaching
p4070
I4070
sVsorry
p4071
I4071
sVsway
p4072
I4072
sVfists
p4073
I4073
sVupdated
p4074
I4074
sVrescue
p4075
I4075
sVmisunderstanding
p4076
I4076
sVstolen
p4077
I4077
sVreforms
p4078
I4078
sVaffect
p4079
I4079
sVvast
p4080
I4080
sVdozen-year
p4081
I4081
sVcrops
p4082
I4082
sVcompanies
p4083
I4083
sVsolution
p4084
I4084
sVcorrect
p4085
I4085
sVfrozen
p4086
I4086
sVit-
p4087
I4087
sVlamore
p4088
I4088
sVheading
p4089
I4089
sVclothes
p4090
I4090
sV10k
p4091
I4091
sVforce
p4092
I4092
sVtenuous
p4093
I4093
sVme-
p4094
I4094
sVwarns
p4095
I4095
sVjapanese
p4096
I4096
sVamakim
p4097
I4097
sVlikely
p4098
I4098
sVeven
p4099
I4099
sVasif
p4100
I4100
sVasia
p4101
I4101
sVspokesman
p4102
I4102
sVhaza
p4103
I4103
sVdr.
p4104
I4104
sVnew
p4105
I4105
sVever
p4106
I4106
sVimplace
p4107
I4107
sVmen
p4108
I4108
sVdrew
p4109
I4109
sVmet
p4110
I4110
sVgoverning
p4111
I4111
sVactive
p4112
I4112
sVreshuffle
p4113
I4113
sVinterpret
p4114
I4114
sVgeraldo
p4115
I4115
sVtapes
p4116
I4116
sV2000/year
p4117
I4117
sVcredit
p4118
I4118
sVomar
p4119
I4119
sVpermit
p4120
I4120
sVsuitable
p4121
I4121
sVplea
p4122
I4122
sVcampaign
p4123
I4123
sVslices
p4124
I4124
sVgrandma
p4125
I4125
sVobjectively
p4126
I4126
sVsliced
p4127
I4127
sVmoral
p4128
I4128
sVguests
p4129
I4129
sVdrowned
p4130
I4130
sVpyongyang
p4131
I4131
sVwelch
p4132
I4132
sVjanine
p4133
I4133
sVcounts
p4134
I4134
sVarmy
p4135
I4135
sVarms
p4136
I4136
sVcall
p4137
I4137
sVrobertson
p4138
I4138
sVtype
p4139
I4139
sVtell
p4140
I4140
sVsupporters
p4141
I4141
sVwary
p4142
I4142
sVschroeder
p4143
I4143
sVwars
p4144
I4144
sVwarn
p4145
I4145
sVdisruption
p4146
I4146
sVberlin
p4147
I4147
sVwarm
p4148
I4148
sVadult
p4149
I4149
sVward
p4150
I4150
sVware
p4151
I4151
sVontological
p4152
I4152
sVroom
p4153
I4153
sVrights
p4154
I4154
sVaqsa
p4155
I4155
sVgasoline
p4156
I4156
sVroof
p4157
I4157
sVcrossette
p4158
I4158
sVroot
p4159
I4159
sVgive
p4160
I4160
sV10,000
p4161
I4161
sVcharities
p4162
I4162
sVaging
p4163
I4163
sVsideline
p4164
I4164
sVshelving
p4165
I4165
sVoff
p4166
I4166
sVkabul
p4167
I4167
sVstupidity
p4168
I4168
sV09:53:40
p4169
I4169
sVanswer
p4170
I4170
sVfaulty
p4171
I4171
sVaboard
p4172
I4172
sVvicious
p4173
I4173
sVshaq
p4174
I4174
sVschoolchildren
p4175
I4175
sV1980-1988
p4176
I4176
sVpresident
p4177
I4177
sVpurchase
p4178
I4178
sVguerilla
p4179
I4179
sVattempt
p4180
I4180
sVthird
p4181
I4181
sVloyalists
p4182
I4182
sVcapitalism
p4183
I4183
sVmaintain
p4184
I4184
sVkeptic
p4185
I4185
sVoperations
p4186
I4186
sVfetus
p4187
I4187
sVdeck
p4188
I4188
sVkong
p4189
I4189
sVbudding
p4190
I4190
sVwindshield
p4191
I4191
sVbefore
p4192
I4192
sV10.3
p4193
I4193
sVpersonal
p4194
I4194
sVhezbollah
p4195
I4195
sVsubjekts
p4196
I4196
sVforcable
p4197
I4197
sV,
p4198
I4198
sVcrew
p4199
I4199
sVbetter
p4200
I4200
sVdamascus
p4201
I4201
sVwaksal
p4202
I4202
sVdifferently
p4203
I4203
sVstalemate
p4204
I4204
sVweeks
p4205
I4205
sVmarcella
p4206
I4206
sVdonors
p4207
I4207
sVcombination
p4208
I4208
sVintimidation
p4209
I4209
sVgazprom
p4210
I4210
sVrhetoric
p4211
I4211
sVarrested
p4212
I4212
sVfringes
p4213
I4213
sVwent
p4214
I4214
sVoperatives
p4215
I4215
sVside
p4216
I4216
sVbone
p4217
I4217
sVmean
p4218
I4218
sVdoup
p4219
I4219
sVmandates
p4220
I4220
sVprinciples
p4221
I4221
sVanti-
p4222
I4222
sVtaught
p4223
I4223
sVtrading
p4224
I4224
sVstealing
p4225
I4225
sVnavy
p4226
I4226
sVaids
p4227
I4227
sVdawn
p4228
I4228
sVrestricted
p4229
I4229
sVcrucial
p4230
I4230
sVsecretary-general
p4231
I4231
sVis-
p4232
I4232
sVstart-
p4233
I4233
sVsurprise
p4234
I4234
sVdelegate
p4235
I4235
sVassaults
p4236
I4236
sVcutest
p4237
I4237
sVresume
p4238
I4238
sVu.s.
p4239
I4239
sVrevenge
p4240
I4240
sVhashim
p4241
I4241
sVstruggle
p4242
I4242
sVmistress
p4243
I4243
sVstarts
p4244
I4244
sVmessages
p4245
I4245
sVmoving
p4246
I4246
sVstewart
p4247
I4247
sVgrade
p4248
I4248
sVhook
p4249
I4249
sVplurality
p4250
I4250
sVhoon
p4251
I4251
sVditch
p4252
I4252
sVhood
p4253
I4253
sS'<UNK>'
p4254
I8073
sVyuan
p4255
I4254
sVconcussion
p4256
I4255
sVgirls
p4257
I4256
sVkizilay
p4258
I4257
sVdwell
p4259
I4258
sVhollywood
p4260
I4259
sVnosta
p4261
I4260
sVescort
p4262
I4261
sVparis-based
p4263
I4262
sVsomewhat
p4264
I4263
sVuscf
p4265
I4264
sVba'ath
p4266
I4265
sVbegins
p4267
I4266
sVdistance
p4268
I4267
sVanxiety
p4269
I4268
sVenabled
p4270
I4269
sVmatter
p4271
I4270
sVpersuade
p4272
I4271
sVbiochemical
p4273
I4272
sVevaporated
p4274
I4273
sVmini
p4275
I4274
sVsees
p4276
I4275
sVminn
p4277
I4276
sVpistons
p4278
I4277
sVmind
p4279
I4278
sVmine
p4280
I4279
sVall-time
p4281
I4280
sVwior
p4282
I4281
sVseen
p4283
I4282
sVseem
p4284
I4283
sVseek
p4285
I4284
sVtells
p4286
I4285
sVafula
p4287
I4286
sVchest
p4288
I4287
sVniece
p4289
I4288
sVmoscow
p4290
I4289
sVquarterback
p4291
I4290
sVatman
p4292
I4291
sVpanel
p4293
I4292
sVregular
p4294
I4293
sVsecession
p4295
I4294
sVreimbursement
p4296
I4295
sVmitigate
p4297
I4296
sVdon
p4298
I4297
sVdunblane
p4299
I4298
sVdoc
p4300
I4299
sVmedical
p4301
I4300
sVnighttime
p4302
I4301
sVdog
p4303
I4302
sVcompetitors
p4304
I4303
sVdefinitely
p4305
I4304
sVprinciple
p4306
I4305
sVconsumer
p4307
I4306
sVbeaten
p4308
I4307
sVcoup
p4309
I4308
sVretire
p4310
I4309
sVending
p4311
I4310
sVattempts
p4312
I4311
sVstepping
p4313
I4312
sVjudges
p4314
I4313
sVnortheast
p4315
I4314
sVexplain
p4316
I4315
sVdebts
p4317
I4316
sV/gallup
p4318
I4317
sVunleashed
p4319
I4318
sVstabbing
p4320
I4319
sVfolks
p4321
I4320
sVjailed
p4322
I4321
sVwearing
p4323
I4322
sVexports
p4324
I4323
sVreconstruction
p4325
I4324
sVstop
p4326
I4325
sVcoast
p4327
I4326
sVchristopher
p4328
I4327
sVu.n.
p4329
I4328
sVcomply
p4330
I4329
sVbar
p4331
I4330
sVfields
p4332
I4331
sVfraudsters
p4333
I4332
sVillegitimate
p4334
I4333
sVbad
p4335
I4334
sVbriefed
p4336
I4335
sVtroop
p4337
I4336
sVfavors
p4338
I4337
sVban
p4339
I4338
sVzoran
p4340
I4339
sVdecides
p4341
I4340
sVreference
p4342
I4341
sVtesting
p4343
I4342
sVzones
p4344
I4343
sVdecided
p4345
I4344
sVadamishin
p4346
I4345
sVstartups
p4347
I4346
sVsubject
p4348
I4347
sVvoyage
p4349
I4348
sVsaid
p4350
I4349
sVinappropriate
p4351
I4350
sVmiana
p4352
I4351
sVscrap
p4353
I4352
sV871.70
p4354
I4353
sVtantamount
p4355
I4354
sVtuberville
p4356
I4355
sVtolerance
p4357
I4356
sVprofitable
p4358
I4357
sVvows
p4359
I4358
sVdumber
p4360
I4359
sVblitzer
p4361
I4360
sVtripled
p4362
I4361
sVcousin
p4363
I4362
sVsuggested
p4364
I4363
sVerdogan
p4365
I4364
sVagainst
p4366
I4365
sVfeathering
p4367
I4366
sVrestarting
p4368
I4367
sVcontribution
p4369
I4368
sVpresumably
p4370
I4369
sVappeared
p4371
I4370
sVguaranteed
p4372
I4371
sVinitiative
p4373
I4372
sVcrisman
p4374
I4373
sVloaded
p4375
I4374
sVtargeting
p4376
I4375
sVsam
p4377
I4376
sVasks
p4378
I4377
sVbasis
p4379
I4378
sVthree
p4380
I4379
sVcommission
p4381
I4380
sVreservation
p4382
I4381
sVtrigger
p4383
I4382
sVinterest
p4384
I4383
sVbasic
p4385
I4384
sVentered
p4386
I4385
sVlovely
p4387
I4386
sVsunnis
p4388
I4387
sVthrew
p4389
I4388
sVdeeper
p4390
I4389
sVmci
p4391
I4390
sVquarterbacking
p4392
I4391
sVpersonally
p4393
I4392
sVaviation
p4394
I4393
sVvoices
p4395
I4394
sVtank
p4396
I4395
sVtunas
p4397
I4396
sVremaining
p4398
I4397
sVugly
p4399
I4398
sVnear
p4400
I4399
sVneat
p4401
I4400
sVmurders
p4402
I4401
sVstudy
p4403
I4402
sVchilling
p4404
I4403
sVseven
p4405
I4404
sVmexico
p4406
I4405
sVis
p4407
I4406
sVit
p4408
I4407
sVii
p4409
I4408
sVshame
p4410
I4409
sVin
p4411
I4410
sV80,000
p4412
I4411
sVseattle
p4413
I4412
sVid
p4414
I4413
sVsever
p4415
I4414
sVif
p4416
I4415
sVgrown
p4417
I4416
sVbottles
p4418
I4417
sVnazi
p4419
I4418
sVmake
p4420
I4419
sVbottled
p4421
I4420
sVpotentially
p4422
I4421
sVunfortunate
p4423
I4422
sVcolonies
p4424
I4423
sVsidelines
p4425
I4424
sVentitled
p4426
I4425
sVmeets
p4427
I4426
sVdeclaring
p4428
I4427
sVdelight
p4429
I4428
sVi-
p4430
I4429
sVkim
p4431
I4430
sVpotentials
p4432
I4431
sVopportunity
p4433
I4432
sVthoughts
p4434
I4433
sVkid
p4435
I4434
sVmateriale
p4436
I4435
sVprograms
p4437
I4436
sVchanges
p4438
I4437
sVfailing
p4439
I4438
sVpractices
p4440
I4439
sVpandora
p4441
I4440
sVpro-independence
p4442
I4441
sVclaims
p4443
I4442
sVinvestments
p4444
I4443
sVleft
p4445
I4444
sVprotocol
p4446
I4445
sVjust
p4447
I4446
sVsentence
p4448
I4447
sVrebellions
p4449
I4448
sVunfair
p4450
I4449
sVassigned
p4451
I4450
sVfighters
p4452
I4451
sVpsych
p4453
I4452
sVhuman
p4454
I4453
sVfacts
p4455
I4454
sV{
p4456
I4455
sVyes
p4457
I4456
sVyet
p4458
I4457
sVimpending
p4459
I4458
sVmasse
p4460
I4459
sVbuyers
p4461
I4460
sVbelfast
p4462
I4461
sVcandidate
p4463
I4462
sVlegion
p4464
I4463
sVassassination
p4465
I4464
sVcharacter
p4466
I4465
sVsave
p4467
I4466
sVye-
p4468
I4467
sVops
p4469
I4468
sVsailors
p4470
I4469
sVwanting
p4471
I4470
sVopn
p4472
I4471
sVvanity
p4473
I4472
sVshoulder
p4474
I4473
sVmanual
p4475
I4474
sVunnecessary
p4476
I4475
sVrarely
p4477
I4476
sVdean
p4478
I4477
sVdeal
p4479
I4478
sVsomehow
p4480
I4479
sVdead
p4481
I4480
sVerradicate
p4482
I4481
sVdear
p4483
I4482
sVrepelling
p4484
I4483
sV66-pound
p4485
I4484
sVignore
p4486
I4485
sVore.
p4487
I4486
sVoutspoken
p4488
I4487
sVtrack
p4489
I4488
sVforham
p4490
I4489
sVloudspeakers
p4491
I4490
sVslavic
p4492
I4491
sVburn
p4493
I4492
sVconfrontation
p4494
I4493
sVgreenbelt
p4495
I4494
sVsuper
p4496
I4495
sVwept
p4497
I4496
sVwhilest
p4498
I4497
sVmagazine
p4499
I4498
sVafternoon
p4500
I4499
sVmccann
p4501
I4500
sVcommit
p4502
I4501
sVmaharashtra
p4503
I4502
sVfoodstore
p4504
I4503
sVcarting
p4505
I4504
sVmanagers
p4506
I4505
sVformerly
p4507
I4506
sVreaping
p4508
I4507
sVdown
p4509
I4508
sVlies
p4510
I4509
sVscalded
p4511
I4510
sV1990s
p4512
I4511
sVannoyance
p4513
I4512
sVinitial
p4514
I4513
sVcounterproductive
p4515
I4514
sVfraction
p4516
I4515
sVstalk
p4517
I4516
sVfactions
p4518
I4517
sVstarve
p4519
I4518
sVform
p4520
I4519
sVsurveil
p4521
I4520
sVlanding
p4522
I4521
sVford
p4523
I4522
sVfailure
p4524
I4523
sVwhat-
p4525
I4524
sVsurrender
p4526
I4525
sVatrocities
p4527
I4526
sVfort
p4528
I4527
sVbuilds
p4529
I4528
sVstaged
p4530
I4529
sVfating
p4531
I4530
sVtucson
p4532
I4531
sVbenchmarks
p4533
I4532
sVstages
p4534
I4533
sVoccupiers
p4535
I4534
sVpropaganda
p4536
I4535
sVkaine
p4537
I4536
sVsticks
p4538
I4537
sVclassic
p4539
I4538
sVcovers
p4540
I4539
sVsticky
p4541
I4540
sVanthrax
p4542
I4541
sVship
p4543
I4542
sVself-defence
p4544
I4543
sVshit
p4545
I4544
sVmarking
p4546
I4545
sVauthoritative
p4547
I4546
sVgenerally
p4548
I4547
sVhanded
p4549
I4548
sVwarehouse
p4550
I4549
sVfelt
p4551
I4550
sVparenthood
p4552
I4551
sVfell
p4553
I4552
sVexported
p4554
I4553
sVauthorities
p4555
I4554
sVtransfers
p4556
I4555
sVslayings
p4557
I4556
sVdied
p4558
I4557
sVderail
p4559
I4558
sVbillion
p4560
I4559
sVforty-two
p4561
I4560
sVoutskirts
p4562
I4561
sVassume
p4563
I4562
sVopen-minded
p4564
I4563
sVdaily
p4565
I4564
sVstripping
p4566
I4565
sVcustomary
p4567
I4566
sVskip
p4568
I4567
sVeldest
p4569
I4568
sVtulkarem
p4570
I4569
sVembezzelled
p4571
I4570
sVmanages
p4572
I4571
sVassailants
p4573
I4572
sVbomber
p4574
I4573
sVlauro
p4575
I4574
sVhijacked
p4576
I4575
sV21st
p4577
I4576
sVsuicide
p4578
I4577
sVbasra
p4579
I4578
sVdeceitful
p4580
I4579
sVlaleh
p4581
I4580
sVtechnique
p4582
I4581
sVfather
p4583
I4582
sViraqi
p4584
I4583
sVfinally
p4585
I4584
sVpraised
p4586
I4585
sVpetersburg
p4587
I4586
sVmarks
p4588
I4587
sVsuffered
p4589
I4588
sVme
p4590
I4589
sVstring
p4591
I4590
sVlynch
p4592
I4591
sVadvised
p4593
I4592
sVweaponized
p4594
I4593
sVjoin
p4595
I4594
sVtimor
p4596
I4595
sVgovernments
p4597
I4596
sVthree-day
p4598
I4597
sVswapping
p4599
I4598
sVdid
p4600
I4599
sVdie
p4601
I4600
sVproposals
p4602
I4601
sVaccidentally
p4603
I4602
sVtravels
p4604
I4603
sVthird-largest
p4605
I4604
sVdip
p4606
I4605
sVround
p4607
I4606
sVolympic
p4608
I4607
sVtalked
p4609
I4608
sVdealing
p4610
I4609
sVforensics
p4611
I4610
sVbombardment
p4612
I4611
sVrun
p4613
I4612
sVtargets
p4614
I4613
sV6:10
p4615
I4614
sVafghanistan
p4616
I4615
sVindochina
p4617
I4616
sVadds
p4618
I4617
sVfavour
p4619
I4618
sVsuspect
p4620
I4619
sValdouri
p4621
I4620
sVinternational
p4622
I4621
sVfilled
p4623
I4622
sVtransportation
p4624
I4623
sVguardian
p4625
I4624
sVclerk
p4626
I4625
sVfrench
p4627
I4626
sVkilometers
p4628
I4627
sVwait
p4629
I4628
sVbox
p4630
I4629
sVboy
p4631
I4630
sVenvirons
p4632
I4631
sVmid-april
p4633
I4632
sVbattling
p4634
I4633
sVshift
p4635
I4634
sVexpulsion
p4636
I4635
sVconvoys
p4637
I4636
sVbok
p4638
I4637
sVsuggestion
p4639
I4638
sVhigh-tech
p4640
I4639
sVbob
p4641
I4640
sVall-out
p4642
I4641
sVelect
p4643
I4642
sVstatewide
p4644
I4643
sVverge
p4645
I4644
sVtransplant
p4646
I4645
sVsympathetic
p4647
I4646
sVtroops
p4648
I4647
sVsharper
p4649
I4648
sVariel
p4650
I4649
sVcooperates
p4651
I4650
sVvisit
p4652
I4651
sVfrance
p4653
I4652
sVinsider
p4654
I4653
sVthru
p4655
I4654
sV2,000-pound
p4656
I4655
sVhockey
p4657
I4656
sVooo
p4658
I4657
sVmalay
p4659
I4658
sVdowntown
p4660
I4659
sVeffort
p4661
I4660
sVcapturing
p4662
I4661
sVcanadian
p4663
I4662
sVfly
p4664
I4663
sVnine-eleven
p4665
I4664
sVtokyo
p4666
I4665
sVreelected
p4667
I4666
sVflu
p4668
I4667
sVsoul
p4669
I4668
sV9th
p4670
I4669
sVgrowing
p4671
I4670
sVmaking
p4672
I4671
sVcarolina
p4673
I4672
sVdeceased
p4674
I4673
sVclaim
p4675
I4674
sVcrazy
p4676
I4675
sVpredict
p4677
I4676
sVwinston
p4678
I4677
sVconfused
p4679
I4678
sVagent
p4680
I4679
sVsample
p4681
I4680
sVshorting
p4682
I4681
sVremanded
p4683
I4682
sVbattered
p4684
I4683
sVcouncil
p4685
I4684
sVdennis
p4686
I4685
sVoslo
p4687
I4686
sVchemical
p4688
I4687
sVsunday
p4689
I4688
sVpure
p4690
I4689
sVnyc
p4691
I4690
sVmap
p4692
I4691
sVstaying
p4693
I4692
sVcritics
p4694
I4693
sVout-of-pocket
p4695
I4694
sVmembership
p4696
I4695
sVjintao
p4697
I4696
sVfaisalabad
p4698
I4697
sVdesigned
p4699
I4698
sVdestructive
p4700
I4699
sVguys
p4701
I4700
sVgrow
p4702
I4701
sVpressuring
p4703
I4702
sVman
p4704
I4703
sVlundberg
p4705
I4704
sVjohnson
p4706
I4705
sVmaybe
p4707
I4706
sVprovide
p4708
I4707
sVjail
p4709
I4708
sVblock
p4710
I4709
sVafrican
p4711
I4710
sVhassan
p4712
I4711
sVpadilla
p4713
I4712
sVtalk
p4714
I4713
sVshield
p4715
I4714
sVcanberra
p4716
I4715
sVgovernment-controlled
p4717
I4716
sVpointed
p4718
I4717
sVseizing
p4719
I4718
sVrabbo
p4720
I4719
sVstability
p4721
I4720
sVcuts
p4722
I4721
sVargued
p4723
I4722
sVpeterson
p4724
I4723
sVsetbacks
p4725
I4724
sVgroup
p4726
I4725
sVmonitor
p4727
I4726
sVwerkheiser
p4728
I4727
sVinteresting
p4729
I4728
sVyorkshire
p4730
I4729
sVummayid
p4731
I4730
sVpolicy
p4732
I4731
sVours
p4733
I4732
sVmsnbc
p4734
I4733
sVmain
p4735
I4734
sVtexas
p4736
I4735
sVemailed
p4737
I4736
sVfinance
p4738
I4737
sVviews
p4739
I4738
sVenclave
p4740
I4739
sVkiller
p4741
I4740
sVundisclosed
p4742
I4741
sVsooner
p4743
I4742
sVbeit
p4744
I4743
sVlunch
p4745
I4744
sVaspirations
p4746
I4745
sVkilled
p4747
I4746
sVdevelopments
p4748
I4747
sVattorneys
p4749
I4748
sVbeach
p4750
I4749
sV3-7th
p4751
I4750
sVbolshevik
p4752
I4751
sVrock
p4753
I4752
sVgirl
p4754
I4753
sVsummary
p4755
I4754
sVcanada
p4756
I4755
sVliving
p4757
I4756
sVjackson
p4758
I4757
sV3rd
p4759
I4758
sVstupid
p4760
I4759
sVimperative
p4761
I4760
sVpeshmerga
p4762
I4761
sVdutch
p4763
I4762
sVwanadi
p4764
I4763
sVkcna
p4765
I4764
sVindicating
p4766
I4765
sVearlier
p4767
I4766
sVtheupups
p4768
I4767
sVbrooks
p4769
I4768
sVcalifornia
p4770
I4769
sVdemanding
p4771
I4770
sVcough
p4772
I4771
sVrealignment
p4773
I4772
sVadvance
p4774
I4773
sVlanguage
p4775
I4774
sVministry
p4776
I4775
sVwanita
p4777
I4776
sVthing
p4778
I4777
sVthink
p4779
I4778
sVfrequent
p4780
I4779
sVfirst
p4781
I4780
sVmalkin
p4782
I4781
sVfleeing
p4783
I4782
sVlone
p4784
I4783
sVamericans
p4785
I4784
sVsignifies
p4786
I4785
sVsuspended
p4787
I4786
sVcarry
p4788
I4787
sVsounds
p4789
I4788
sVlittle
p4790
I4789
sVespn
p4791
I4790
sVanyone
p4792
I4791
sVplains
p4793
I4792
sValfred
p4794
I4793
sVparticipated
p4795
I4794
sVspeaking
p4796
I4795
sVcoburn
p4797
I4796
sVeyes
p4798
I4797
sVallegedly
p4799
I4798
sVmemo
p4800
I4799
sVhillary
p4801
I4800
sVinterdict
p4802
I4801
sVstipulation
p4803
I4802
sVgreenberg
p4804
I4803
sVsailing
p4805
I4804
sVprotected
p4806
I4805
sVwere
p4807
I4806
sVgathering
p4808
I4807
sVjeezera
p4809
I4808
sVtopics
p4810
I4809
sVoccupies
p4811
I4810
sVdefecting
p4812
I4811
sVtalib
p4813
I4812
sVwinding
p4814
I4813
sVconspiracy
p4815
I4814
sVyuganskneftgaz
p4816
I4815
sVnaxakis
p4817
I4816
sVimpressions
p4818
I4817
sVlozada
p4819
I4818
sVoccupied
p4820
I4819
sVairlifts
p4821
I4820
sVkevin
p4822
I4821
sVhooded
p4823
I4822
sVefficient
p4824
I4823
sVshocked
p4825
I4824
sVendangered
p4826
I4825
sVpotential
p4827
I4826
sVinterior
p4828
I4827
sVperformance
p4829
I4828
sVbeirut
p4830
I4829
sVchannel
p4831
I4830
sVforward-thinking
p4832
I4831
sVpain
p4833
I4832
sVnorman
p4834
I4833
sVnormal
p4835
I4834
sVarguing
p4836
I4835
sVpaid
p4837
I4836
sVassault
p4838
I4837
sVbarrage
p4839
I4838
sVcomplaints
p4840
I4839
sV20-
p4841
I4840
sVhardships
p4842
I4841
sV12,500
p4843
I4842
sVcuban
p4844
I4843
sVespecially
p4845
I4844
sVsurprising
p4846
I4845
sVmastectomy
p4847
I4846
sVmassacres
p4848
I4847
sVjumped
p4849
I4848
sVshop
p4850
I4849
sVrating
p4851
I4850
sVshot
p4852
I4851
sVprovences
p4853
I4852
sVshow
p4854
I4853
sVdelta
p4855
I4854
sVrepresentatives
p4856
I4855
sVrep.
p4857
I4856
sVjordanian
p4858
I4857
sVcorner
p4859
I4858
sVfend
p4860
I4859
sVdick
p4861
I4860
sVbehind
p4862
I4861
sVoutpost
p4863
I4862
sVblack
p4864
I4863
sVdeployed
p4865
I4864
sVtreasury
p4866
I4865
sVenthusiasm
p4867
I4866
sVclose-quarters
p4868
I4867
sVranking
p4869
I4868
sVget
p4870
I4869
sVcontracts
p4871
I4870
sVdesignated
p4872
I4871
sVsatisfied
p4873
I4872
sVhailed
p4874
I4873
sVnearly
p4875
I4874
sVsecondary
p4876
I4875
sVmanager
p4877
I4876
sVbusiest
p4878
I4877
sVyield
p4879
I4878
sVmorning
p4880
I4879
sVmiles
p4881
I4880
sVmogadishu
p4882
I4881
sVaudited
p4883
I4882
sVdeclared
p4884
I4883
sVseat
p4885
I4884
sVcocktails
p4886
I4885
sVj-
p4887
I4886
sVj.
p4888
I4887
sVseal
p4889
I4888
sVwonder
p4890
I4889
sVindicted
p4891
I4890
sVrigidly
p4892
I4891
sVmachetes
p4893
I4892
sVlabel
p4894
I4893
sVwhereabouts
p4895
I4894
sVenough
p4896
I4895
sVreading
p4897
I4896
sVacross
p4898
I4897
sVaugust
p4899
I4898
sVparent
p4900
I4899
sVlegitimacy
p4901
I4900
sVtur
p4902
I4901
sVkilling
p4903
I4902
sVjo
p4904
I4903
sVnews-12
p4905
I4904
sVborneo
p4906
I4905
sVaccording
p4907
I4906
sVblasts
p4908
I4907
sVtour
p4909
I4908
sVall-day
p4910
I4909
sVamong
p4911
I4910
sVstretcher
p4912
I4911
sVcancer
p4913
I4912
sVfreak
p4914
I4913
sVcustody
p4915
I4914
sVconsidering
p4916
I4915
sVarts
p4917
I4916
sVdallaire
p4918
I4917
sVcapable
p4919
I4918
sVbarry
p4920
I4919
sVbejing
p4921
I4920
sVcrossfire
p4922
I4921
sVmark
p4923
I4922
sVdeserters
p4924
I4923
sVregimental
p4925
I4924
sVmars
p4926
I4925
sVborders
p4927
I4926
sVmary
p4928
I4927
sVquack
p4929
I4928
sVus-led
p4930
I4929
sVshopping
p4931
I4930
sVgraveyard
p4932
I4931
sVoffered
p4933
I4932
sVgeorgia
p4934
I4933
sVsort
p4935
I4934
sVdramatic
p4936
I4935
sVwake
p4937
I4936
sVdeclaration
p4938
I4937
sVthose
p4939
I4938
sVsound
p4940
I4939
sVcoordinator
p4941
I4940
sVn't
p4942
I4941
sVassociates
p4943
I4942
sVongoing
p4944
I4943
sVresidence
p4945
I4944
sVinvestigating
p4946
I4945
sVmargin
p4947
I4946
sVeventually
p4948
I4947
sVsincere
p4949
I4948
sVstrait
p4950
I4949
sVsleeping
p4951
I4950
sVmiddle
p4952
I4951
sVsudden
p4953
I4952
sVrestroom
p4954
I4953
sVeveryday
p4955
I4954
sVbags
p4956
I4955
sVdifferent
p4957
I4956
sVdoctor
p4958
I4957
sVpay
p4959
I4958
sVsame
p4960
I4959
sVwizards
p4961
I4960
sVpad
p4962
I4961
sVarguments
p4963
I4962
sVsams
p4964
I4963
sVstepped
p4965
I4964
sVextended
p4966
I4965
sVgalahad
p4967
I4966
sVassist
p4968
I4967
sVrunning
p4969
I4968
sVmotorcade
p4970
I4969
sVtotally
p4971
I4970
sVdrain
p4972
I4971
sVlargely
p4973
I4972
sViraqis
p4974
I4973
sVaccountable
p4975
I4974
sVsolve
p4976
I4975
sVconvened
p4977
I4976
sVcameramen
p4978
I4977
sVgates
p4979
I4978
sVlumbered
p4980
I4979
sVmalicious
p4981
I4980
sViraqi-kuwait
p4982
I4981
sVhe's-
p4983
I4982
sVmoney
p4984
I4983
sVadjustments
p4985
I4984
sVganga
p4986
I4985
sVgwan
p4987
I4986
sVnick
p4988
I4987
sVmcdonald
p4989
I4988
sVtourism
p4990
I4989
sVbeagle
p4991
I4990
sVheavier
p4992
I4991
sVcareers
p4993
I4992
sVgrip
p4994
I4993
sVschwarzenegger
p4995
I4994
sVadmitting
p4996
I4995
sVmom
p4997
I4996
sVmob
p4998
I4997
sVgrim
p4999
I4998
sVchristine
p5000
I4999
sVtwin
p5001
I5000
sVserves
p5002
I5001
sV've
p5003
I5002
sVfacing
p5004
I5003
sVreimbursing
p5005
I5004
sVnose
p5006
I5005
sVserved
p5007
I5006
sVjews
p5008
I5007
sVwitchcraft
p5009
I5008
sVimprisonment
p5010
I5009
sVspecified
p5011
I5010
sVpasture
p5012
I5011
sVorganizing
p5013
I5012
sVal-mujahideen
p5014
I5013
sVaccomplice
p5015
I5014
sVellis
p5016
I5015
sVconfirm
p5017
I5016
sVsudan
p5018
I5017
sVfooting
p5019
I5018
sVfront-page
p5020
I5019
sVcritical
p5021
I5020
sVexpressing
p5022
I5021
sVmoderate
p5023
I5022
sVcalmy-rey
p5024
I5023
sVknife
p5025
I5024
sVseconds
p5026
I5025
sVproblems
p5027
I5026
sVbroker
p5028
I5027
sVsquall
p5029
I5028
sVbroken
p5030
I5029
sVdespicable
p5031
I5030
sVbaxley
p5032
I5031
sVpost-taliban
p5033
I5032
sVdrums
p5034
I5033
sVstrangled
p5035
I5034
sVregulations
p5036
I5035
sVson-in-law
p5037
I5036
sVstations
p5038
I5037
sVroar
p5039
I5038
sVisland
p5040
I5039
sVviolence
p5041
I5040
sVirbil
p5042
I5041
sVtopeka
p5043
I5042
sVairline
p5044
I5043
sVpockets
p5045
I5044
sVroad
p5046
I5045
sVorganizers
p5047
I5046
sVdecimated
p5048
I5047
sV1,900
p5049
I5048
sVtwo-day
p5050
I5049
sVspreading
p5051
I5050
sVblessed
p5052
I5051
sVvacation
p5053
I5052
sVstrip
p5054
I5053
sVjerusalem
p5055
I5054
sVsprings
p5056
I5055
sVwildfire
p5057
I5056
sVmart
p5058
I5057
sVdaubed
p5059
I5058
sVdistracted
p5060
I5059
sVgalvanize
p5061
I5060
sVhanover
p5062
I5061
sVfrom
p5063
I5062
sVdeepened
p5064
I5063
sVstrikes
p5065
I5064
sVsophisticated
p5066
I5065
sVdownstairs
p5067
I5066
sVland/
p5068
I5067
sVarranged
p5069
I5068
sVco-chief
p5070
I5069
sVyear-olds
p5071
I5070
sVbenton
p5072
I5071
sVtip-offs
p5073
I5072
sVpowerless
p5074
I5073
sVaffection
p5075
I5074
sVcitation
p5076
I5075
sVdeep
p5077
I5076
sVgeneral
p5078
I5077
sVal-asad
p5079
I5078
sVexamine
p5080
I5079
sVfile
p5081
I5080
sVgirlfriend
p5082
I5081
sVdeterrent
p5083
I5082
sVsyrian
p5084
I5083
sV10/31/2004
p5085
I5084
sVfilm
p5086
I5085
sVagain
p5087
I5086
sVistanbul
p5088
I5087
sVretiring
p5089
I5088
sVpersonnel
p5090
I5089
sVdrivers
p5091
I5090
sVfield
p5092
I5091
sVon-hand
p5093
I5092
sVcoughing
p5094
I5093
sV4,000
p5095
I5094
sVstudents
p5096
I5095
sVimportant
p5097
I5096
sVinfluence
p5098
I5097
sVdecorated
p5099
I5098
sVassets
p5100
I5099
sVtightened
p5101
I5100
sVgod
p5102
I5101
sVschrenko
p5103
I5102
sVresolution
p5104
I5103
sVrepresent
p5105
I5104
sVemile
p5106
I5105
sVforget
p5107
I5106
sVfounder
p5108
I5107
sVforbidden
p5109
I5108
sVdollar
p5110
I5109
sVsunk
p5111
I5110
sVbaath
p5112
I5111
sVtalks
p5113
I5112
sVimplement
p5114
I5113
sVchildren
p5115
I5114
sVreluctant
p5116
I5115
sVshattered
p5117
I5116
sVspillover
p5118
I5117
sVrwanda
p5119
I5118
sVaward
p5120
I5119
sVcaptivity
p5121
I5120
sVmother-
p5122
I5121
sVenjoying
p5123
I5122
sVmandela
p5124
I5123
sVpremium
p5125
I5124
sVreturning
p5126
I5125
sVlain
p5127
I5126
sVfall
p5128
I5127
sVdifference
p5129
I5128
sVnorfolk
p5130
I5129
sVdictatorship
p5131
I5130
sVsaudi
p5132
I5131
sVbiological
p5133
I5132
sVfirefight
p5134
I5133
sVneighborhood
p5135
I5134
sVga
p5136
I5135
sVkonstantinovsky
p5137
I5136
sVarizona
p5138
I5137
sVperspective
p5139
I5138
sVlawyer
p5140
I5139
sVfurther
p5141
I5140
sVdial
p5142
I5141
sVabc
p5143
I5142
sVmobilizing
p5144
I5143
sVwaall
p5145
I5144
sVabi
p5146
I5145
sVcoroner
p5147
I5146
sVabu
p5148
I5147
sVpublic
p5149
I5148
sVmovement
p5150
I5149
sVwrangling
p5151
I5150
sVrangel
p5152
I5151
sVbeacon
p5153
I5152
sVdisastrous
p5154
I5153
sVoperating
p5155
I5154
sVstipend
p5156
I5155
sVadmits
p5157
I5156
sVsearch
p5158
I5157
sVbible
p5159
I5158
sVprosecutors
p5160
I5159
sVstretching
p5161
I5160
sVsignificantly
p5162
I5161
sVairport
p5163
I5162
sVmisery
p5164
I5163
sVnarrow
p5165
I5164
sVmedics
p5166
I5165
sVauthorize
p5167
I5166
sVbuses
p5168
I5167
sVverbally
p5169
I5168
sVafrica
p5170
I5169
sVsanction
p5171
I5170
sVexpelling
p5172
I5171
sVarmed
p5173
I5172
sVshareholders
p5174
I5173
sVsanjay
p5175
I5174
sVlong-held
p5176
I5175
sVwiped
p5177
I5176
sVdestination
p5178
I5177
sVtwo
p5179
I5178
sVcomparing
p5180
I5179
sVre-take
p5181
I5180
sVlander
p5182
I5181
sVputin
p5183
I5182
sVlanded
p5184
I5183
sVparticular
p5185
I5184
sVmu'awiya
p5186
I5185
sVtown
p5187
I5186
sVshoichiro
p5188
I5187
sVnone
p5189
I5188
sVhour
p5190
I5189
sVstrain
p5191
I5190
sVrecall
p5192
I5191
sVmaniac
p5193
I5192
sVroosevelt
p5194
I5193
sVguards
p5195
I5194
sVunindicted
p5196
I5195
sVremain
p5197
I5196
sVescorted
p5198
I5197
sVabandon
p5199
I5198
sVstrategies
p5200
I5199
sVchirac
p5201
I5200
sVstubborn
p5202
I5201
sVbravely
p5203
I5202
sVgravely
p5204
I5203
sVonslaught
p5205
I5204
sVshare
p5206
I5205
sVcollision
p5207
I5206
sVminimum
p5208
I5207
sVnumbers
p5209
I5208
sVpurchased
p5210
I5209
sVsharp
p5211
I5210
sVhomicide
p5212
I5211
sVsiren
p5213
I5212
sVawkward
p5214
I5213
sVneedy
p5215
I5214
sVacts
p5216
I5215
sVsmokers
p5217
I5216
sVdisney
p5218
I5217
sVredwood
p5219
I5218
sVuprising
p5220
I5219
sVblood
p5221
I5220
sVcoming
p5222
I5221
sVresponse
p5223
I5222
sVhair-trigger
p5224
I5223
sVbrady
p5225
I5224
sVcrowded
p5226
I5225
sVcooperating
p5227
I5226
sVconglomerates
p5228
I5227
sVblunder
p5229
I5228
sVdeserted
p5230
I5229
sVresponsibility
p5231
I5230
sVpleasure
p5232
I5231
sVplaying
p5233
I5232
sVinfant
p5234
I5233
sVrifles
p5235
I5234
sVunderscore
p5236
I5235
sVfinalized
p5237
I5236
sVstains
p5238
I5237
sVuh-
p5239
I5238
sVradar
p5240
I5239
sVindustrial
p5241
I5240
sVthrough
p5242
I5241
sVexistence
p5243
I5242
sVok-
p5244
I5243
sVpossessions
p5245
I5244
sVlate
p5246
I5245
sVreuters
p5247
I5246
sVcowrote
p5248
I5247
sVspeech
p5249
I5248
sVo'brien
p5250
I5249
sVhurting
p5251
I5250
sVsomeone
p5252
I5251
sVseeking
p5253
I5252
sVmales
p5254
I5253
sVprejudices
p5255
I5254
sVwalls
p5256
I5255
sVcompound
p5257
I5256
sViranians
p5258
I5257
sVassociation
p5259
I5258
sVmystery
p5260
I5259
sVexiles
p5261
I5260
sVpregnant
p5262
I5261
sVspy
p5263
I5262
sVtoken
p5264
I5263
sVpositions
p5265
I5264
sVports
p5266
I5265
sVforthright
p5267
I5266
sVharm
p5268
I5267
sVeveryone
p5269
I5268
sVhouse
p5270
I5269
sVtiffany
p5271
I5270
sVhard
p5272
I5271
sVidea
p5273
I5272
sVoil
p5274
I5273
sVinsurance
p5275
I5274
sVperry
p5276
I5275
sVcuban/todd
p5277
I5276
sVdallek
p5278
I5277
sVcrowing
p5279
I5278
sVacting
p5280
I5279
sVlongtime
p5281
I5280
sVsloan
p5282
I5281
sVdisobedience
p5283
I5282
sVlawrence
p5284
I5283
sVcommits
p5285
I5284
sVbacker
p5286
I5285
sVextraordinary
p5287
I5286
sVmembers
p5288
I5287
sVbacked
p5289
I5288
sVbeginning
p5290
I5289
sVyasser
p5291
I5290
sVdribbled
p5292
I5291
sVthrowers
p5293
I5292
sVpilots
p5294
I5293
sVjordena
p5295
I5294
sVclaudia
p5296
I5295
sVtayyip
p5297
I5296
sVmistakenly
p5298
I5297
sVwaged
p5299
I5298
sVdone
p5300
I5299
sVislamiyah
p5301
I5300
sVwages
p5302
I5301
sVdistable
p5303
I5302
sVtwenty
p5304
I5303
sVleast
p5305
I5304
sVmilitant
p5306
I5305
sVpaint
p5307
I5306
sVassumption
p5308
I5307
sVstatement
p5309
I5308
sVcompromise
p5310
I5309
sVmuscles
p5311
I5310
sVmentality
p5312
I5311
sVsizable
p5313
I5312
sVpart
p5314
I5313
sVparr
p5315
I5314
sVdoctors
p5316
I5315
sVtackle
p5317
I5316
sVbelieve
p5318
I5317
sVb
p5319
I5318
sVgotten
p5320
I5319
sVyouth
p5321
I5320
sVcontrary
p5322
I5321
sVsupposed
p5323
I5322
sVamazes
p5324
I5323
sVtreated
p5325
I5324
sVzellitte
p5326
I5325
sVrussian-chinese
p5327
I5326
sVfirst-round
p5328
I5327
sVreunion
p5329
I5328
sVages
p5330
I5329
sVladouce
p5331
I5330
sV~k
p5332
I5331
sVthey're-
p5333
I5332
sVdismember
p5334
I5333
sVorders
p5335
I5334
sVditched
p5336
I5335
sVbuilt
p5337
I5336
sVdepending
p5338
I5337
sVcouch
p5339
I5338
sVmajority
p5340
I5339
sVbuild
p5341
I5340
sVprovince
p5342
I5341
sVqurei
p5343
I5342
sVameircans
p5344
I5343
sVstate-of-the-art
p5345
I5344
sVsignificant
p5346
I5345
sVservices
p5347
I5346
sVextremely
p5348
I5347
sVconstructed
p5349
I5348
sVhumanitarian
p5350
I5349
sVcharitable
p5351
I5350
sVdodging
p5352
I5351
sVsector
p5353
I5352
sVthomas
p5354
I5353
sVparticularly
p5355
I5354
sVrebels
p5356
I5355
sVdisturbances
p5357
I5356
sVscattered
p5358
I5357
sVhugging
p5359
I5358
sVconverge
p5360
I5359
sVbusinesses
p5361
I5360
sVcarefully
p5362
I5361
sVfine
p5363
I5362
sVfind
p5364
I5363
sVgen.
p5365
I5364
sVgiant
p5366
I5365
sVdepended
p5367
I5366
sVmerger
p5368
I5367
sVnervous
p5369
I5368
sVdistributed
p5370
I5369
sV19th
p5371
I5370
sVfreedoms
p5372
I5371
sVgenerators
p5373
I5372
sVpermission
p5374
I5373
sVcholera
p5375
I5374
sVexpress
p5376
I5375
sVcheaper
p5377
I5376
sVqasr
p5378
I5377
sVmerchandise
p5379
I5378
sVreersen
p5380
I5379
sVdoubled
p5381
I5380
sVspiked
p5382
I5381
sVcommon
p5383
I5382
sVarchaeologist
p5384
I5383
sVlion
p5385
I5384
sVindividual
p5386
I5385
sVleslie
p5387
I5386
sVsurrendered
p5388
I5387
sV11th
p5389
I5388
sVforthcoming
p5390
I5389
sVfeared
p5391
I5390
sVpro-saddam
p5392
I5391
sVexpert
p5393
I5392
sVvisiting
p5394
I5393
sVelectoral
p5395
I5394
sVfans
p5396
I5395
sVburned
p5397
I5396
sVdonate
p5398
I5397
sVtransfered
p5399
I5398
sVresponses
p5400
I5399
sVcomplementary
p5401
I5400
sVnashville
p5402
I5401
sVmailbox
p5403
I5402
sVaircraft
p5404
I5403
sVguantanamo
p5405
I5404
sVfull-time
p5406
I5405
sVrestaurant
p5407
I5406
sVforeign
p5408
I5407
sVtightens
p5409
I5408
sVstone-throwing
p5410
I5409
sVanti-war
p5411
I5410
sVpoint
p5412
I5411
sVsimple
p5413
I5412
sVga-
p5414
I5413
sVtennessee
p5415
I5414
sVsimply
p5416
I5415
sVdeacons
p5417
I5416
sVupgrades
p5418
I5417
sVasserted
p5419
I5418
sVvolunteered
p5420
I5419
sVthroughout
p5421
I5420
sVexpensive
p5422
I5421
sVdobbs
p5423
I5422
sVraise
p5424
I5423
sVcreate
p5425
I5424
sVrivals
p5426
I5425
sVsecret
p5427
I5426
sVdropping
p5428
I5427
sVireland
p5429
I5428
sVu.n.-controlled
p5430
I5429
sVmili-
p5431
I5430
sVparliamentary
p5432
I5431
sVmeeting
p5433
I5432
sVal-rantissi
p5434
I5433
sVnukes
p5435
I5434
sVassorted
p5436
I5435
sVchatted
p5437
I5436
sVgas
p5438
I5437
sV16-year-old
p5439
I5438
sVgap
p5440
I5439
sVunderstand
p5441
I5440
sVvang
p5442
I5441
sVprices
p5443
I5442
sVchatter
p5444
I5443
sVunnecessarily
p5445
I5444
sV225-kilogram
p5446
I5445
sVsuha
p5447
I5446
sVpolitician
p5448
I5447
sVsolid
p5449
I5448
sVbill
p5450
I5449
sVholocaust
p5451
I5450
sVreplaced
p5452
I5451
sVfun
p5453
I5452
sVportugal
p5454
I5453
sVcentury
p5455
I5454
sVcents
p5456
I5455
sVencountered
p5457
I5456
sVabducting
p5458
I5457
sVitself
p5459
I5458
sVitaly
p5460
I5459
sVsuggests
p5461
I5460
sVdepartures
p5462
I5461
sVsclected
p5463
I5462
sVdevelopment
p5464
I5463
sVdhabi
p5465
I5464
sVpraising
p5466
I5465
sVkeys
p5467
I5466
sVyesterday
p5468
I5467
sVmoment
p5469
I5468
sVpurpose
p5470
I5469
sVrealm
p5471
I5470
sVtask
p5472
I5471
sVfinesse
p5473
I5472
sVrearm
p5474
I5473
sVspent
p5475
I5474
sVflags
p5476
I5475
sVwithdraw
p5477
I5476
sV*was*
p5478
I5477
sVorganization
p5479
I5478
sVsignalled
p5480
I5479
sVspend
p5481
I5480
sVprevention
p5482
I5481
sVechoing
p5483
I5482
sVexamining
p5484
I5483
sVshape
p5485
I5484
sVopenly
p5486
I5485
sVatomic
p5487
I5486
sValternative
p5488
I5487
sVinjuries
p5489
I5488
sVletting
p5490
I5489
sVimpetus
p5491
I5490
sVcut
p5492
I5491
sVspills
p5493
I5492
sVsource
p5494
I5493
sVcue
p5495
I5494
sVdeliberately
p5496
I5495
sVadministrative
p5497
I5496
sVexcited
p5498
I5497
sVhates
p5499
I5498
sVbin
p5500
I5499
sVbig
p5501
I5500
sVrebound
p5502
I5501
sVbit
p5503
I5502
sVdegenerated
p5504
I5503
sVfollows
p5505
I5504
sVindication
p5506
I5505
sVfoolish
p5507
I5506
sVoften
p5508
I5507
sVdiocese
p5509
I5508
sVabsolutely
p5510
I5509
sVextremism
p5511
I5510
sVback
p5512
I5511
sVextremist
p5513
I5512
sVlet's-
p5514
I5513
sVexamples
p5515
I5514
sVlightning
p5516
I5515
sVourselves
p5517
I5516
sVscale
p5518
I5517
sV5:14
p5519
I5518
sVinfliction
p5520
I5519
sVper
p5521
I5520
sVconnecting
p5522
I5521
sVeliminate
p5523
I5522
sVinvade
p5524
I5523
sVeither
p5525
I5524
sVcameraman
p5526
I5525
sVpatient
p5527
I5526
sVparibas
p5528
I5527
sVcontinuing
p5529
I5528
sVfed
p5530
I5529
sVhostages
p5531
I5530
sVfeb
p5532
I5531
sVhawkish
p5533
I5532
sVgoods
p5534
I5533
sVconsumption
p5535
I5534
sVcomplexes
p5536
I5535
sVpost-conflict
p5537
I5536
sVtruck
p5538
I5537
sVmrs.
p5539
I5538
sVbeans
p5540
I5539
sVarmedded
p5541
I5540
sVconsequently
p5542
I5541
sVabusive
p5543
I5542
sVinvading
p5544
I5543
sVframed
p5545
I5544
sVneutrality
p5546
I5545
sVtharthar
p5547
I5546
sVlesson
p5548
I5547
sVbankruptcy
p5549
I5548
sVjockey
p5550
I5549
sVanti-life
p5551
I5550
sVyahoo.com
p5552
I5551
sVpharmaceuticals
p5553
I5552
sVmanifested
p5554
I5553
sVforward
p5555
I5554
sVkeating
p5556
I5555
sVbored
p5557
I5556
sVopponent
p5558
I5557
sVpounded
p5559
I5558
sVgeorgia-based
p5560
I5559
sVbyrne
p5561
I5560
sVimmigration
p5562
I5561
sVhoped
p5563
I5562
sVboys
p5564
I5563
sVsda
p5565
I5564
sVhopes
p5566
I5565
sVbrain-damaged
p5567
I5566
sVdirected
p5568
I5567
sVdr.s
p5569
I5568
sVplanet
p5570
I5569
sV're
p5571
I5570
sVexploration
p5572
I5571
sVplanes
p5573
I5572
sVviacom
p5574
I5573
sVautonomous
p5575
I5574
sVbelgian
p5576
I5575
sVpossession
p5577
I5576
sVcurt
p5578
I5577
sVconstant
p5579
I5578
sVflow
p5580
I5579
sVswenson
p5581
I5580
sVbrits
p5582
I5581
sV22-year-old
p5583
I5582
sVconsulted
p5584
I5583
sVcure
p5585
I5584
sVdelegation
p5586
I5585
sVcafe
p5587
I5586
sV%
p5588
I5587
sVsemiautomatic
p5589
I5588
sVjoao
p5590
I5589
sVbrokaw
p5591
I5590
sVsevan
p5592
I5591
sVbecomes
p5593
I5592
sVassassinate
p5594
I5593
sVaccidental
p5595
I5594
sVprepared
p5596
I5595
sVoil-rich
p5597
I5596
sVutterly
p5598
I5597
sVlent
p5599
I5598
sVdesert
p5600
I5599
sVrallied
p5601
I5600
sVoverlooking
p5602
I5601
sVvehicles
p5603
I5602
sVresponded
p5604
I5603
sVimplied
p5605
I5604
sVpresenting
p5606
I5605
sVfailures
p5607
I5606
sVtube
p5608
I5607
sVsufyan
p5609
I5608
sVgraves
p5610
I5609
sVcontacted
p5611
I5610
sVnow-toppled
p5612
I5611
sVbruhl
p5613
I5612
sViskandar
p5614
I5613
sVhelps
p5615
I5614
sVwaterford
p5616
I5615
sVmowed
p5617
I5616
sVmaryland
p5618
I5617
sVfatal
p5619
I5618
sVbrigade
p5620
I5619
sVankara
p5621
I5620
sVsoyuz
p5622
I5621
sVputting
p5623
I5622
sVarrange
p5624
I5623
sVseverely
p5625
I5624
sVuncovering
p5626
I5625
sVshock
p5627
I5626
sVceasefire
p5628
I5627
sVbleeding
p5629
I5628
sVfirst-degree
p5630
I5629
sVdemonstrations
p5631
I5630
sVearth
p5632
I5631
sVrivera
p5633
I5632
sVvigils
p5634
I5633
sVpittance
p5635
I5634
sVchicago
p5636
I5635
sVgiving
p5637
I5636
sVassisted
p5638
I5637
sVharrods
p5639
I5638
sVaccess
p5640
I5639
sVanywhere
p5641
I5640
sVbody
p5642
I5641
sVjustification
p5643
I5642
sVexchange
p5644
I5643
sV*of*
p5645
I5644
sVpr-
p5646
I5645
sVothers
p5647
I5646
sVluis
p5648
I5647
sVsafer
p5649
I5648
sVerakat
p5650
I5649
sVextreme
p5651
I5650
sVnotably
p5652
I5651
sVtalent
p5653
I5652
sVgays
p5654
I5653
sVprincipally
p5655
I5654
sVpazner
p5656
I5655
sVevacuating
p5657
I5656
sVlooted
p5658
I5657
sVnamed
p5659
I5658
sVcrashing
p5660
I5659
sVprivate
p5661
I5660
sVegress
p5662
I5661
sVnames
p5663
I5662
sVscandal
p5664
I5663
sVresolutions
p5665
I5664
sVgateway
p5666
I5665
sVferris
p5667
I5666
sVnobel
p5668
I5667
sVthemselves
p5669
I5668
sVimpotence
p5670
I5669
sVupcoming
p5671
I5670
sVairlifted
p5672
I5671
sVtrail
p5673
I5672
sVtrain
p5674
I5673
sVprizes
p5675
I5674
sVarranging
p5676
I5675
sVtearing
p5677
I5676
sVhints
p5678
I5677
sVaccount
p5679
I5678
sVtunnel
p5680
I5679
sVobvious
p5681
I5680
sVclosing
p5682
I5681
sVdidnt
p5683
I5682
sVkhakamada
p5684
I5683
sVproportions
p5685
I5684
sVinfantry
p5686
I5685
sVeffectively
p5687
I5686
sVreserves
p5688
I5687
sVbones
p5689
I5688
sV8-day
p5690
I5689
sVcontempt
p5691
I5690
sVnative
p5692
I5691
sVdaring
p5693
I5692
sVdemocracy
p5694
I5693
sVholds
p5695
I5694
sVhelos
p5696
I5695
sVhampshire
p5697
I5696
sVregions
p5698
I5697
sVresponsibilities
p5699
I5698
sVwinners
p5700
I5699
sVlpdr
p5701
I5700
sVafp
p5702
I5701
sVstock
p5703
I5702
sVname-calling
p5704
I5703
sVbuildings
p5705
I5704
sVbagdad
p5706
I5705
sVbothered
p5707
I5706
sVtressel
p5708
I5707
sVunited
p5709
I5708
sVterrier
p5710
I5709
sVaf-
p5711
I5710
sVbombers
p5712
I5711
sVchasing
p5713
I5712
sVbind
p5714
I5713
sVlines
p5715
I5714
sVcorrespond
p5716
I5715
sVlikud
p5717
I5716
sVfurious
p5718
I5717
sVsubsequently
p5719
I5718
sV800,000
p5720
I5719
sVwedding
p5721
I5720
sVdisarm
p5722
I5721
sVshreds
p5723
I5722
sVbunch
p5724
I5723
sVindustries
p5725
I5724
sVbridges
p5726
I5725
sVnegotiated
p5727
I5726
sVcochabamba
p5728
I5727
sVla
p5729
I5728
sVlampposts
p5730
I5729
sVli
p5731
I5730
sVage
p5732
I5731
sVwilling
p5733
I5732
sVcriminal
p5734
I5733
sVextradition
p5735
I5734
sVdad
p5736
I5735
sVgreater
p5737
I5736
sVdam
p5738
I5737
sVdan
p5739
I5738
sVmention
p5740
I5739
sVcutting
p5741
I5740
sVcourtroom
p5742
I5741
sVinsisting
p5743
I5742
sVkindness
p5744
I5743
sVday
p5745
I5744
sVstrive
p5746
I5745
sVfebruary
p5747
I5746
sVblindfolded
p5748
I5747
sVestranged
p5749
I5748
sVwarned
p5750
I5749
sVidentified
p5751
I5750
sVdisregard
p5752
I5751
sVexperienced
p5753
I5752
sVwarner
p5754
I5753
sVthwart
p5755
I5754
sVbelgrade
p5756
I5755
sVapologize
p5757
I5756
sVsexual
p5758
I5757
sVmatt
p5759
I5758
sVdefend
p5760
I5759
sVarkansas
p5761
I5760
sVpostpone
p5762
I5761
sVout-raised
p5763
I5762
sVred
p5764
I5763
sVapproached
p5765
I5764
sVfrank
p5766
I5765
sVpayroll
p5767
I5766
sVclarify
p5768
I5767
sVapproaches
p5769
I5768
sVlikelihood
p5770
I5769
sVafterward
p5771
I5770
sVquo
p5772
I5771
sVsalute
p5773
I5772
sVallies
p5774
I5773
sVrumbled
p5775
I5774
sVmortar
p5776
I5775
sVhinting
p5777
I5776
sVallied
p5778
I5777
sVdowned
p5779
I5778
sVbaabda
p5780
I5779
sVwaitress
p5781
I5780
sVscalding
p5782
I5781
sV2,000
p5783
I5782
sVtributes
p5784
I5783
sVstrategic
p5785
I5784
sVfranks
p5786
I5785
sVimprovements
p5787
I5786
sVreached
p5788
I5787
sVocalan
p5789
I5788
sVwarships
p5790
I5789
sVchased
p5791
I5790
sVupons
p5792
I5791
sVpalestine
p5793
I5792
sVpakistani
p5794
I5793
sVcompleted
p5795
I5794
sVacquire
p5796
I5795
sVloved
p5797
I5796
sVbodyguard
p5798
I5797
sVpenhaul
p5799
I5798
sVshrapnel
p5800
I5799
sVpro-u.n.
p5801
I5800
sVsweden
p5802
I5801
sVvisited
p5803
I5802
sVcounting
p5804
I5803
sVbulldozer
p5805
I5804
sVhagel
p5806
I5805
sVcold-shoulder
p5807
I5806
sVcomfortable
p5808
I5807
sVpatting
p5809
I5808
sVunlikely
p5810
I5809
sVhave
p5811
I5810
sVdisturbing
p5812
I5811
sVthroat
p5813
I5812
sVkeener
p5814
I5813
sVdemonstration
p5815
I5814
sVdallas
p5816
I5815
sVgravity
p5817
I5816
sVparks
p5818
I5817
sVmontgomery
p5819
I5818
sVoliveira
p5820
I5819
sVconcerns
p5821
I5820
sVkaplan
p5822
I5821
sVprovoked
p5823
I5822
sVreciting
p5824
I5823
sVp.o.w
p5825
I5824
sVyassar
p5826
I5825
sVbemused
p5827
I5826
sVeight
p5828
I5827
sVpreliminary
p5829
I5828
sVprisoner
p5830
I5829
sVqatari
p5831
I5830
sVtranscript
p5832
I5831
sVpayment
p5833
I5832
sVgather
p5834
I5833
sVrequest
p5835
I5834
sVdisease
p5836
I5835
sV1,000
p5837
I5836
sVdenouncing
p5838
I5837
sVartificially
p5839
I5838
sVnormally
p5840
I5839
sVsupported
p5841
I5840
sVstaff
p5842
I5841
sVgrabbed
p5843
I5842
sVknowledge
p5844
I5843
sVendangers
p5845
I5844
sVsarin
p5846
I5845
sVcommunist
p5847
I5846
sVcockpits
p5848
I5847
sVphotographs
p5849
I5848
sVhijacking
p5850
I5849
sVbeat
p5851
I5850
sVbear
p5852
I5851
sVdivisions
p5853
I5852
sVusa-10
p5854
I5853
sVwestchester
p5855
I5854
sVareas
p5856
I5855
sVorgan
p5857
I5856
sVapproach
p5858
I5857
sVcalling
p5859
I5858
sVshelling
p5860
I5859
sVincluding
p5861
I5860
sVfixed
p5862
I5861
sVpertains
p5863
I5862
sVkrypton
p5864
I5863
sVheightens
p5865
I5864
sVnational
p5866
I5865
sVshowdown
p5867
I5866
sVaccord
p5868
I5867
sVintensity
p5869
I5868
sVscholastic
p5870
I5869
sVgreece
p5871
I5870
sVmaynard
p5872
I5871
sVturks
p5873
I5872
sVattempting
p5874
I5873
sVmaddox
p5875
I5874
sV36,000
p5876
I5875
sV67,814.09
p5877
I5876
sVdifficulties
p5878
I5877
sVcomapny
p5879
I5878
sVprogress
p5880
I5879
sVmonarchy
p5881
I5880
sVdeliver
p5882
I5881
sVbyrds
p5883
I5882
sVimplementing
p5884
I5883
sVfreely
p5885
I5884
sVtaking
p5886
I5885
sVequal
p5887
I5886
sVagree
p5888
I5887
sVassure
p5889
I5888
sVswim
p5890
I5889
sVconquered
p5891
I5890
sVpassing
p5892
I5891
sVotherwise
p5893
I5892
sVcomment
p5894
I5893
sVbloodleting
p5895
I5894
sVambushed
p5896
I5895
sVabortive
p5897
I5896
sVdisarmament
p5898
I5897
sVearning
p5899
I5898
sVpouring
p5900
I5899
sVtremendous
p5901
I5900
sVcopies
p5902
I5901
sVnewscast
p5903
I5902
sVmauser
p5904
I5903
sVeasiest
p5905
I5904
sVgaza
p5906
I5905
sVproposal
p5907
I5906
sVimprove
p5908
I5907
sVramallah
p5909
I5908
sVdefine
p5910
I5909
sVcop
p5911
I5910
sVoverwhelmingly
p5912
I5911
sVfinished
p5913
I5912
sVtense
p5914
I5913
sVfellow
p5915
I5914
sVvolunteer
p5916
I5915
sVkenya
p5917
I5916
sVlebanese
p5918
I5917
sVsplits
p5919
I5918
sVbehest
p5920
I5919
sVplain
p5921
I5920
sVappearance
p5922
I5921
sVvalue
p5923
I5922
sVstalin
p5924
I5923
sVensuing
p5925
I5924
sV'invisible
p5926
I5925
sVcarved
p5927
I5926
sVkoreans
p5928
I5927
sValmost
p5929
I5928
sVdissent
p5930
I5929
sVcaptors
p5931
I5930
sVhelped
p5932
I5931
sVarrangements
p5933
I5932
sVarabia
p5934
I5933
sVpartner
p5935
I5934
sVinspector
p5936
I5935
sVaz
p5937
I5936
sV)
p5938
I5937
sVcables
p5939
I5938
sVadministration
p5940
I5939
sVslammed
p5941
I5940
sVcasualty
p5942
I5941
sVshuttle
p5943
I5942
sVmicrosoft
p5944
I5943
sVpowell
p5945
I5944
sVfrivolous
p5946
I5945
sVsultan
p5947
I5946
sVinjured
p5948
I5947
sVtighten
p5949
I5948
sVkidnapping
p5950
I5949
sVreporting
p5951
I5950
sVion
p5952
I5951
sVspitting
p5953
I5952
sVsisters
p5954
I5953
sVskepticism
p5955
I5954
sVgiuliani
p5956
I5955
sVjudgment
p5957
I5956
sVscholars
p5958
I5957
sVkidnappings
p5959
I5958
sVrecourse
p5960
I5959
sVraping
p5961
I5960
sVyates
p5962
I5961
sVweapon
p5963
I5962
sVantonio
p5964
I5963
sVthought
p5965
I5964
sVqawasmi
p5966
I5965
sVposition
p5967
I5966
sVwreckage
p5968
I5967
sVsoviet
p5969
I5968
sVlatest
p5970
I5969
sVpeacefully
p5971
I5970
sVstores
p5972
I5971
sVexcise
p5973
I5972
sVproximity
p5974
I5973
sVexecutive
p5975
I5974
sVdomestic
p5976
I5975
sVone-lawyer
p5977
I5976
sVnicknamed
p5978
I5977
sVclinic
p5979
I5978
sVinterim
p5980
I5979
sVseats
p5981
I5980
sVtough
p5982
I5981
sVhazing
p5983
I5982
sVprecaugs
p5984
I5983
sVinvestor
p5985
I5984
sVonward
p5986
I5985
sVadd
p5987
I5986
sVsuccessor
p5988
I5987
sVought
p5989
I5988
sVgmt
p5990
I5989
sVresolved
p5991
I5990
sVchretien
p5992
I5991
sVroyalty
p5993
I5992
sVdeployment
p5994
I5993
sVmahathir
p5995
I5994
sVdisplaced
p5996
I5995
sVlike
p5997
I5996
sVinviting
p5998
I5997
sVadmitted
p5999
I5998
sVjournalist
p6000
I5999
sVconrad
p6001
I6000
sVsoft
p6002
I6001
sVitalian
p6003
I6002
sVeased
p6004
I6003
sValive
p6005
I6004
sVwider
p6006
I6005
sVproper
p6007
I6006
sVsupportive
p6008
I6007
sVhappens
p6009
I6008
sVjeeves
p6010
I6009
sVchichester
p6011
I6010
sVcorpse
p6012
I6011
sVassuming
p6013
I6012
sVscrewed
p6014
I6013
sVchains
p6015
I6014
sVbingo
p6016
I6015
sVnoise
p6017
I6016
sVslight
p6018
I6017
sVa-
p6019
I6018
sVbounlty
p6020
I6019
sVstellar
p6021
I6020
sVlieutenant
p6022
I6021
sVhost
p6023
I6022
sVrecieving
p6024
I6023
sValthough
p6025
I6024
sVraiding
p6026
I6025
sVwaving
p6027
I6026
sVabout
p6028
I6027
sVactual
p6029
I6028
sVboards
p6030
I6029
sVwithdrew
p6031
I6030
sVaziz
p6032
I6031
sVevoke
p6033
I6032
sVintroduced
p6034
I6033
sVj-dam
p6035
I6034
sVobliterated
p6036
I6035
sVbillions
p6037
I6036
sVsidenote
p6038
I6037
sVguard
p6039
I6038
sVquickly
p6040
I6039
sVridge
p6041
I6040
sVrushed
p6042
I6041
sVbrides
p6043
I6042
sVbuckle
p6044
I6043
sV'80s
p6045
I6044
sVpro-european
p6046
I6045
sVbiggest
p6047
I6046
sVglobe
p6048
I6047
sVbuy
p6049
I6048
sVbus
p6050
I6049
sVpreparations
p6051
I6050
sVreminds
p6052
I6051
sVrepeated
p6053
I6052
sVstrident
p6054
I6053
sVsprawling
p6055
I6054
sVwise
p6056
I6055
sVwish
p6057
I6056
sVminutes
p6058
I6057
sVplutonium
p6059
I6058
sVsaeb
p6060
I6059
sVsupreme
p6061
I6060
sVpio
p6062
I6061
sVsupremo
p6063
I6062
sVwhisper
p6064
I6063
sVtopless
p6065
I6064
sVambassadors
p6066
I6065
sVshooting
p6067
I6066
sVcommander-in-chief
p6068
I6067
sVunintelligible
p6069
I6068
sVcorporation
p6070
I6069
sVclaiming
p6071
I6070
sVdetail
p6072
I6071
sValledgedly
p6073
I6072
sVstrewing
p6074
I6073
sVdrugging
p6075
I6074
sVthumping
p6076
I6075
sVbankrupcy
p6077
I6076
sVstarting
p6078
I6077
sVbaker
p6079
I6078
sVthataeen
p6080
I6079
sVhikes
p6081
I6080
sVaccidents
p6082
I6081
sVthunderstorms
p6083
I6082
sVlimited
p6084
I6083
sVus-british
p6085
I6084
sVfacilities
p6086
I6085
sVsuny
p6087
I6086
sVsleep
p6088
I6087
sVayub
p6089
I6088
sV20-hour
p6090
I6089
sVhate
p6091
I6090
sVassembled
p6092
I6091
sVpoorly
p6093
I6092
sVozzy
p6094
I6093
sV1.14
p6095
I6094
sVviolate
p6096
I6095
sVparis
p6097
I6096
sVcrises
p6098
I6097
sVpoorest
p6099
I6098
sV7.62
p6100
I6099
sVal-thani
p6101
I6100
sVwhatsoever
p6102
I6101
sVunder
p6103
I6102
sVrightist
p6104
I6103
sVpride
p6105
I6104
sVsuburban
p6106
I6105
sVapplied
p6107
I6106
sVlegislators
p6108
I6107
sVrisk
p6109
I6108
sVrise
p6110
I6109
sVevery
p6111
I6110
sVjack
p6112
I6111
sVvastly
p6113
I6112
sVencounter
p6114
I6113
sVschool
p6115
I6114
sVdelightfully
p6116
I6115
sVfairfax
p6117
I6116
sVbicycle
p6118
I6117
sVleaders
p6119
I6118
sVfairness
p6120
I6119
sVestimates
p6121
I6120
sVdirect
p6122
I6121
sVsurrounding
p6123
I6122
sVstreet
p6124
I6123
sVinfiltration
p6125
I6124
sVestimated
p6126
I6125
sVsimilarly-named
p6127
I6126
sVblue
p6128
I6127
sVhide
p6129
I6128
sVkut
p6130
I6129
sVpoison
p6131
I6130
sVachille
p6132
I6131
sVconduct
p6133
I6132
sVsupplies
p6134
I6133
sVevicted
p6135
I6134
sVseeks
p6136
I6135
sVkicked
p6137
I6136
sVresponsiveness
p6138
I6137
sVbunkers
p6139
I6138
sVgourevitch
p6140
I6139
sVhundreds
p6141
I6140
sVbeck
p6142
I6141
sVstudio
p6143
I6142
sVrepresented
p6144
I6143
sVaftermath
p6145
I6144
sVarroyo
p6146
I6145
sVenron
p6147
I6146
sVproperty
p6148
I6147
sVtx
p6149
I6148
sVforum
p6150
I6149
sVauction
p6151
I6150
sVsettler
p6152
I6151
sVworse-
p6153
I6152
sVanalysts
p6154
I6153
sVsettled
p6155
I6154
sVstraw
p6156
I6155
sVpatience
p6157
I6156
sVphilip
p6158
I6157
sVheathrow
p6159
I6158
sVtn
p6160
I6159
sVwould
p6161
I6160
sVm-
p6162
I6161
sVhospital
p6163
I6162
sVm.
p6164
I6163
sVlookedding
p6165
I6164
sVasset
p6166
I6165
sVraids
p6167
I6166
sVpreview
p6168
I6167
sVassessment
p6169
I6168
sVslaughtered
p6170
I6169
sVboomed
p6171
I6170
sV34-year-old
p6172
I6171
sVphone
p6173
I6172
sVconnecticut
p6174
I6173
sVexcellent
p6175
I6174
sVexpenses
p6176
I6175
sVcasualties
p6177
I6176
sVtampa
p6178
I6177
sVmust
p6179
I6178
sVshoot
p6180
I6179
sVma
p6181
I6180
sVmm
p6182
I6181
sVp.l.o.
p6183
I6182
sVu.s.-backed
p6184
I6183
sVcancellations
p6185
I6184
sVmt
p6186
I6185
sVmy
p6187
I6186
sVgrenade
p6188
I6187
sVunilateral
p6189
I6188
sVjoyous
p6190
I6189
sVorion
p6191
I6190
sVscheduling
p6192
I6191
sVkeep
p6193
I6192
sVguarantee
p6194
I6193
sVceremony
p6195
I6194
sVunmeasurable
p6196
I6195
sVstrom
p6197
I6196
sVend
p6198
I6197
sVsitting
p6199
I6198
sVaccusations
p6200
I6199
sVwidespread
p6201
I6200
sVcharging
p6202
I6201
sVbadly
p6203
I6202
sVmess
p6204
I6203
sVcoffers
p6205
I6204
sVklinghoffer
p6206
I6205
sVjumping
p6207
I6206
sVpoked
p6208
I6207
sVparallel
p6209
I6208
sVrummy
p6210
I6209
sVstronghold
p6211
I6210
sVdanny
p6212
I6211
sVamid
p6213
I6212
sVacknowledged
p6214
I6213
sVupside
p6215
I6214
sVultimate
p6216
I6215
sVenter
p6217
I6216
sVmajlis
p6218
I6217
sVacknowledges
p6219
I6218
sVlaghi
p6220
I6219
sVexecuted
p6221
I6220
sVover
p6222
I6221
sVlondon
p6223
I6222
sVthesis
p6224
I6223
sVhypocrisy
p6225
I6224
sVal-aqsa
p6226
I6225
sVmongolia
p6227
I6226
sVwriting
p6228
I6227
sVdestroyed
p6229
I6228
sVcompelling
p6230
I6229
sVceding
p6231
I6230
sViowa
p6232
I6231
sVtourist
p6233
I6232
sVprevented
p6234
I6233
sVsafwan
p6235
I6234
sVillegitimacy
p6236
I6235
sVrental
p6237
I6236
sV30-year
p6238
I6237
sVnetherlands
p6239
I6238
sVbosnia
p6240
I6239
sVspokeswomen
p6241
I6240
sVchuck
p6242
I6241
sVdetroit
p6243
I6242
sVaffiliate
p6244
I6243
sVvictory
p6245
I6244
sVeach
p6246
I6245
sVlasting
p6247
I6246
sVprohibit
p6248
I6247
sVleftist
p6249
I6248
sVfairmont
p6250
I6249
sVhanged
p6251
I6250
sVrovers
p6252
I6251
sVlebensraum
p6253
I6252
sVsaturday
p6254
I6253
sVmilitarized
p6255
I6254
sVdriving
p6256
I6255
sVkuwait
p6257
I6256
sVwashed
p6258
I6257
sVpbg
p6259
I6258
sVwelsh
p6260
I6259
sVlaid
p6261
I6260
sVadjust
p6262
I6261
sVgutierrez
p6263
I6262
sVmarinello
p6264
I6263
sVgot
p6265
I6264
sVgov
p6266
I6265
sVindependence
p6267
I6266
sVsept.
p6268
I6267
sVpsuedo.com
p6269
I6268
sVfree
p6270
I6269
sVfred
p6271
I6270
sVmanagement
p6272
I6271
sVcounterparts
p6273
I6272
sVdamper
p6274
I6273
sVwanted
p6275
I6274
sVstipent
p6276
I6275
sVdays
p6277
I6276
sVoutfits
p6278
I6277
sVhopeless
p6279
I6278
sVonto
p6280
I6279
sVinspectors
p6281
I6280
sValready
p6282
I6281
sVnhl
p6283
I6282
sVzm-87
p6284
I6283
sVhearing
p6285
I6284
sVrant
p6286
I6285
sVretreats
p6287
I6286
sVtoy
p6288
I6287
sVrevival
p6289
I6288
sVtop
p6290
I6289
sVattack
p6291
I6290
sVtoo
p6292
I6291
sVtom
p6293
I6292
sVpercentage
p6294
I6293
sVurban
p6295
I6294
sVceiling
p6296
I6295
sVmurder
p6297
I6296
sVgarden-type
p6298
I6297
sV75.01
p6299
I6298
sVbrushes
p6300
I6299
sVserve
p6301
I6300
sVtook
p6302
I6301
sVnegotiating
p6303
I6302
sVwestern
p6304
I6303
sVkept
p6305
I6304
sVtonkin
p6306
I6305
sVkidnaps
p6307
I6306
sVimmigrants
p6308
I6307
sVtourists
p6309
I6308
sVto-
p6310
I6309
sVhillah
p6311
I6310
sVbridge
p6312
I6311
sVran
p6313
I6312
sVtalking
p6314
I6313
sVregulate
p6315
I6314
sVpow-wow
p6316
I6315
sV-
p6317
I6316
sVyucks
p6318
I6317
sVearmarked
p6319
I6318
sVeffectiveness
p6320
I6319
sVabililty
p6321
I6320
sVthough
p6322
I6321
sVpassover
p6323
I6322
sVplenty
p6324
I6323
sVjean
p6325
I6324
sVexplosives
p6326
I6325
sVmetal
p6327
I6326
sVtreaty
p6328
I6327
sVorderly
p6329
I6328
sVchris
p6330
I6329
sVinspire
p6331
I6330
sVpope
p6332
I6331
sVreductions
p6333
I6332
sVrandom
p6334
I6333
sVarabic-speaking
p6335
I6334
sVradio
p6336
I6335
sVpkk
p6337
I6336
sVbail
p6338
I6337
sVspite
p6339
I6338
sVdelays
p6340
I6339
sVminnesota
p6341
I6340
sVtries
p6342
I6341
sVsupremacy
p6343
I6342
sVannounce
p6344
I6343
sVintersecting
p6345
I6344
sVhostility
p6346
I6345
sVwatch
p6347
I6346
sVfluid
p6348
I6347
sVcriticized
p6349
I6348
sVdespite
p6350
I6349
sVreport
p6351
I6350
sVknocks
p6352
I6351
sVnurse
p6353
I6352
sVcountries
p6354
I6353
sVidiotic
p6355
I6354
sV85,000
p6356
I6355
sVtwice
p6357
I6356
sVshots
p6358
I6357
sVinter-agency
p6359
I6358
sVthanks
p6360
I6359
sVthree-phase
p6361
I6360
sVnut
p6362
I6361
sVroadmap
p6363
I6362
sVm1-a1
p6364
I6363
sVbed
p6365
I6364
sVmahmoud
p6366
I6365
sVsporadic
p6367
I6366
sVgrandmother
p6368
I6367
sVfinger
p6369
I6368
sVhopefully
p6370
I6369
sVprotectorates
p6371
I6370
sVpocketbooks
p6372
I6371
sVjose
p6373
I6372
sVhe/she
p6374
I6373
sVweak
p6375
I6374
sVhowever
p6376
I6375
sVboss
p6377
I6376
sVsoutheast
p6378
I6377
sVnews
p6379
I6378
sVblasted
p6380
I6379
sVlineman
p6381
I6380
sVfaced
p6382
I6381
sVprotect
p6383
I6382
sVirregular
p6384
I6383
sVfault
p6385
I6384
sVplayers
p6386
I6385
sVlahoud
p6387
I6386
sVfaces
p6388
I6387
sVetnew
p6389
I6388
sVexpense
p6390
I6389
sVepidemic
p6391
I6390
sVtrust
p6392
I6391
sVhitler
p6393
I6392
sVconference
p6394
I6393
sVbathroom
p6395
I6394
sVbeef
p6396
I6395
sVpre-dawn
p6397
I6396
sVbeen
p6398
I6397
sVbacklash
p6399
I6398
sVsubmarine
p6400
I6399
sVbeer
p6401
I6400
sVadvisories
p6402
I6401
sVexpected
p6403
I6402
sVdrugs
p6404
I6403
sVrepublicans
p6405
I6404
sVtransatlantic
p6406
I6405
sVcraft
p6407
I6406
sVcatch
p6408
I6407
sV62,000
p6409
I6408
sVn
p6410
I6409
sVlesser
p6411
I6410
sVdept
p6412
I6411
sVstopping
p6413
I6412
sVerratically
p6414
I6413
sVprovocative
p6415
I6414
sVanatoly
p6416
I6415
sVexperts
p6417
I6416
sVexperience
p6418
I6417
sVanniverary
p6419
I6418
sVsuggest
p6420
I6419
sVwound
p6421
I6420
sVlevelled
p6422
I6421
sVbeside
p6423
I6422
sVcomplex
p6424
I6423
sVamman
p6425
I6424
sVseveral
p6426
I6425
sVsatellite
p6427
I6426
sVtheodore
p6428
I6427
sVpublished
p6429
I6428
sVgreeted
p6430
I6429
sVinsisted
p6431
I6430
sVmurdering
p6432
I6431
sVcycle
p6433
I6432
sVshortly
p6434
I6433
sVcharlie
p6435
I6434
sVocean
p6436
I6435
sVsavings
p6437
I6436
sVdetained
p6438
I6437
sVmother
p6439
I6438
sVhearts
p6440
I6439
sValabama
p6441
I6440
sVpossesses
p6442
I6441
sVoutnumbered
p6443
I6442
sVdeparted
p6444
I6443
sVproposed
p6445
I6444
sVtransporting
p6446
I6445
sVuncooperative
p6447
I6446
sVresigning
p6448
I6447
sVmonitored
p6449
I6448
sVsixers
p6450
I6449
sVteenager
p6451
I6450
sVtechnological
p6452
I6451
sVhmong
p6453
I6452
sVgave
p6454
I6453
sVfallujah
p6455
I6454
sVhalf-brother
p6456
I6455
sVsmall-arms
p6457
I6456
sVbreaks
p6458
I6457
sVright-wing
p6459
I6458
sVgunned
p6460
I6459
sVjudge
p6461
I6460
sVburns
p6462
I6461
sVrumor
p6463
I6462
sVapart
p6464
I6463
sVexxon
p6465
I6464
sVappearing
p6466
I6465
sVbrutality
p6467
I6466
sVgift
p6468
I6467
sVhunt
p6469
I6468
sVspecific
p6470
I6469
sVrenamed
p6471
I6470
sVoffices
p6472
I6471
sVofficer
p6473
I6472
sVserbian
p6474
I6473
sVhung
p6475
I6474
sVjazeera
p6476
I6475
sVjennifer
p6477
I6476
sVexpansions
p6478
I6477
sVdonald
p6479
I6478
sVmeters
p6480
I6479
sVelection
p6481
I6480
sVescape
p6482
I6481
sVprecautions
p6483
I6482
sVembodied
p6484
I6483
sVestablish
p6485
I6484
sVice
p6486
I6485
sVeverything
p6487
I6486
sVadministratice
p6488
I6487
sVcnn
p6489
I6488
sVchristmas
p6490
I6489
sVicu
p6491
I6490
sVcord
p6492
I6491
sVcore
p6493
I6492
sVfrontman
p6494
I6493
sVbrawl
p6495
I6494
sVarbitrary
p6496
I6495
sVeye
p6497
I6496
sVpermitted
p6498
I6497
sVmechanized
p6499
I6498
sVchapter
p6500
I6499
sVattacks
p6501
I6500
sVsurround
p6502
I6501
sV'liberated
p6503
I6502
sVo'neal
p6504
I6503
sVdinner
p6505
I6504
sVgenocide
p6506
I6505
sVefforts
p6507
I6506
sVnon-
p6508
I6507
sVduke
p6509
I6508
sVpresence
p6510
I6509
sVcivil
p6511
I6510
sVentrepreneur
p6512
I6511
sVabed
p6513
I6512
sVdonated
p6514
I6513
sVcoastal
p6515
I6514
sVcafeteria
p6516
I6515
sVrounds
p6517
I6516
sVbenon
p6518
I6517
sVarafat-had-aids
p6519
I6518
sVmalvo
p6520
I6519
sVclass
p6521
I6520
sVstuck
p6522
I6521
sVfought
p6523
I6522
sVcrews
p6524
I6523
sVquestionable
p6525
I6524
sVhead
p6526
I6525
sVattempted
p6527
I6526
sVdifferences
p6528
I6527
sVdeny
p6529
I6528
sVheinous
p6530
I6529
sVpayable
p6531
I6530
sVheat
p6532
I6531
sVuncle
p6533
I6532
sVsustained
p6534
I6533
sVremoved
p6535
I6534
sVportions
p6536
I6535
sVconsequences
p6537
I6536
sVversions
p6538
I6537
sVrefueling
p6539
I6538
sVhis/her
p6540
I6539
sVbids
p6541
I6540
sVprematurely
p6542
I6541
sVfront-line
p6543
I6542
sVforearm
p6544
I6543
sVsuspicions
p6545
I6544
sVeverest
p6546
I6545
sVcheck
p6547
I6546
sVregime
p6548
I6547
sVblatantly
p6549
I6548
sVradically
p6550
I6549
sVno
p6551
I6550
sVtit
p6552
I6551
sVwhen
p6553
I6552
sVproceedings
p6554
I6553
sVtim
p6555
I6554
sVtin
p6556
I6555
sVsetting
p6557
I6556
sVpapers
p6558
I6557
sVvanished
p6559
I6558
sVdepot
p6560
I6559
sVteed
p6561
I6560
sVpicture
p6562
I6561
sVcleric
p6563
I6562
sVphoenix
p6564
I6563
sVsolana
p6565
I6564
sVfootball
p6566
I6565
sVleonard
p6567
I6566
sVdischarge
p6568
I6567
sVvi-
p6569
I6568
sVyounger
p6570
I6569
sVlonger
p6571
I6570
sVbullet
p6572
I6571
sVsacks
p6573
I6572
sVyacht
p6574
I6573
sVvietnam
p6575
I6574
sVremarked
p6576
I6575
sVserious
p6577
I6576
sVroh
p6578
I6577
sVcoach
p6579
I6578
sVremarkable
p6580
I6579
sVimpression
p6581
I6580
sVrod
p6582
I6581
sVfocus
p6583
I6582
sVleads
p6584
I6583
sVmarion
p6585
I6584
sVmicrobiologist
p6586
I6585
sVdiscern
p6587
I6586
sVnineteen
p6588
I6587
sVpassage
p6589
I6588
sVcharge
p6590
I6589
sVweakening
p6591
I6590
sVfederation
p6592
I6591
sVadvantage
p6593
I6592
sVibrahim
p6594
I6593
sVuntenable
p6595
I6594
sVtanks
p6596
I6595
sVcook
p6597
I6596
sVdenounced
p6598
I6597
sVvladimir
p6599
I6598
sVlevel
p6600
I6599
sVphilippines
p6601
I6600
sVposts
p6602
I6601
sVbrother
p6603
I6602
sVstandards
p6604
I6603
sVquick
p6605
I6604
sVpork
p6606
I6605
sVsays
p6607
I6606
sVinvades
p6608
I6607
sV979-777-6445
p6609
I6608
sVcolin
p6610
I6609
sVjournalistic
p6611
I6610
sVdried
p6612
I6611
sVbake
p6613
I6612
sVbacteria
p6614
I6613
sVconstitution
p6615
I6614
sVpatrols
p6616
I6615
sVdebate
p6617
I6616
sVtarmac
p6618
I6617
sVgoes
p6619
I6618
sVwater
p6620
I6619
sVbaseball
p6621
I6620
sVgroups
p6622
I6621
sVcrippled
p6623
I6622
sV[
p6624
I6623
sVunidentified
p6625
I6624
sVboast
p6626
I6625
sVhealthy
p6627
I6626
sVguilty
p6628
I6627
sVlaw-abiding
p6629
I6628
sVpaxton
p6630
I6629
sVemerge
p6631
I6630
sVshootings
p6632
I6631
sVmccormick
p6633
I6632
sVshelled
p6634
I6633
sVproblematic
p6635
I6634
sVparalyzed
p6636
I6635
sV1st
p6637
I6636
sVswallowed
p6638
I6637
sVcrisis
p6639
I6638
sVsports
p6640
I6639
sVabbas
p6641
I6640
sVmsm
p6642
I6641
sVarabian
p6643
I6642
sVandy
p6644
I6643
sVmemory
p6645
I6644
sVmsf
p6646
I6645
sVaustralian
p6647
I6646
sVeighty
p6648
I6647
sVtoday
p6649
I6648
sVunwarranted
p6650
I6649
sVkerry
p6651
I6650
sVsessions
p6652
I6651
sVheinously
p6653
I6652
sVfuel
p6654
I6653
sVbeers
p6655
I6654
sVcases
p6656
I6655
sVinsights
p6657
I6656
sVand-
p6658
I6657
sVtribunal
p6659
I6658
sVamaral
p6660
I6659
sVa-10
p6661
I6660
sVlocal
p6662
I6661
sVsandstorm
p6663
I6662
sVjudy
p6664
I6663
sVferry
p6665
I6664
sVsemi-automatic
p6666
I6665
sVnursing
p6667
I6666
sVfigure
p6668
I6667
sVkye
p6669
I6668
sVconcierge
p6670
I6669
sVcritic
p6671
I6670
sVdropped
p6672
I6671
sVprovoke
p6673
I6672
sVswedish
p6674
I6673
sVplunging
p6675
I6674
sVrequirements
p6676
I6675
sVsecured
p6677
I6676
sVharmed
p6678
I6677
sVmismanagement
p6679
I6678
sVvital
p6680
I6679
sVcardinal
p6681
I6680
sVfourth
p6682
I6681
sVendorsement
p6683
I6682
sVensure
p6684
I6683
sVcondemn
p6685
I6684
sV!
p6686
I6685
sVtipper
p6687
I6686
sVmassacre
p6688
I6687
sVcocktail
p6689
I6688
sVinformation
p6690
I6689
sVimpartial
p6691
I6690
sVrites
p6692
I6691
sVneeds
p6693
I6692
sVcrashed
p6694
I6693
sVbirthday
p6695
I6694
sVeighth
p6696
I6695
sVbranches
p6697
I6696
sVrefund
p6698
I6697
sVfatil
p6699
I6698
sVcheckpoints
p6700
I6699
sVmainly
p6701
I6700
sVcanary
p6702
I6701
sVwesterners
p6703
I6702
sVblocked
p6704
I6703
sVfedayeen
p6705
I6704
sVcourthouse
p6706
I6705
sVwallace
p6707
I6706
sVsorties
p6708
I6707
sVplatform
p6709
I6708
sVfarmer
p6710
I6709
sVcoordinated
p6711
I6710
sVhappened
p6712
I6711
sVdevastated
p6713
I6712
sVqualified
p6714
I6713
sVfeathered
p6715
I6714
sVterm
p6716
I6715
sVpolish
p6717
I6716
sVname
p6718
I6717
sVstabilize
p6719
I6718
sVpossibilities
p6720
I6719
sVrealistic
p6721
I6720
sVrealise
p6722
I6721
sVturfed
p6723
I6722
sVrealism
p6724
I6723
sVweighted
p6725
I6724
sVpro-murder
p6726
I6725
sVoverwith
p6727
I6726
sS'<NUM>'
p6728
I6727
sVpersian
p6729
I6728
sVbegun
p6730
I6729
sVintended
p6731
I6730
sVultimately
p6732
I6731
sVprofit
p6733
I6732
sVtensions
p6734
I6733
sVoklahoma
p6735
I6734
sVfactory
p6736
I6735
sVcancels
p6737
I6736
sVgreenstock
p6738
I6737
sV12-year-old
p6739
I6738
sVkent
p6740
I6739
sVeagle
p6741
I6740
sVattended
p6742
I6741
sVanwar
p6743
I6742
sVtheory
p6744
I6743
sVlawmaker
p6745
I6744
sVdispatched
p6746
I6745
sValbuquerque
p6747
I6746
sVdispatcher
p6748
I6747
sVyup
p6749
I6748
sVmotion
p6750
I6749
sVturn
p6751
I6750
sVplace
p6752
I6751
sVmortars
p6753
I6752
sVunborn
p6754
I6753
sVammo
p6755
I6754
sVcubans
p6756
I6755
sVrevenue
p6757
I6756
sVfaculty
p6758
I6757
sVsymbolic
p6759
I6758
sVdia
p6760
I6759
sVkgb-style
p6761
I6760
sVsoaring
p6762
I6761
sVethics
p6763
I6762
sVmillions
p6764
I6763
sVgiven
p6765
I6764
sVdistrict
p6766
I6765
sVnative-born
p6767
I6766
sVeurope
p6768
I6767
sVplastic
p6769
I6768
sVconservation
p6770
I6769
sV10-15,000
p6771
I6770
sV14-year-old
p6772
I6771
sVwhite
p6773
I6772
sVgives
p6774
I6773
sVbriton
p6775
I6774
sVhug
p6776
I6775
sVhub
p6777
I6776
sVseason
p6778
I6777
sVreleased
p6779
I6778
sVpopulation
p6780
I6779
sVwide
p6781
I6780
sVnathan
p6782
I6781
sVunfortunately
p6783
I6782
sVrequire
p6784
I6783
sVdiplomatic
p6785
I6784
sVallyourtv.com
p6786
I6785
sVofficials
p6787
I6786
sV1,000-pound
p6788
I6787
sVcards
p6789
I6788
sVpoisoning
p6790
I6789
sVmarines
p6791
I6790
sVoutcome
p6792
I6791
sVand
p6793
I6792
sVarmored
p6794
I6793
sVhmos
p6795
I6794
sVconfessed
p6796
I6795
sVhappily
p6797
I6796
sV320,490
p6798
I6797
sVmates
p6799
I6798
sVrent
p6800
I6799
sVnominating
p6801
I6800
sVsells
p6802
I6801
sVany
p6803
I6802
sVmarathon
p6804
I6803
sVwandered
p6805
I6804
sVdining
p6806
I6805
sVemphasis
p6807
I6806
sVresembling
p6808
I6807
sVblunt
p6809
I6808
sVsure
p6810
I6809
sVmultiple
p6811
I6810
sVukrainian
p6812
I6811
sVazores
p6813
I6812
sVan-
p6814
I6813
sVfalls
p6815
I6814
sVdonation
p6816
I6815
sVhaditah
p6817
I6816
sVstormed
p6818
I6817
sVcleared
p6819
I6818
sVfreelancer
p6820
I6819
sVconsidered
p6821
I6820
sVjakarta
p6822
I6821
sVproud
p6823
I6822
sVhungry
p6824
I6823
sVkoran
p6825
I6824
sVreadjust
p6826
I6825
sVhear
p6827
I6826
sVsenior
p6828
I6827
sVreplied
p6829
I6828
sVconvoy
p6830
I6829
sVraja
p6831
I6830
sVfeminist
p6832
I6831
sVallegations
p6833
I6832
sVcheal
p6834
I6833
sVsouthwestern
p6835
I6834
sVpre-emptive
p6836
I6835
sVgulf
p6837
I6836
sVwritten
p6838
I6837
sVcrime
p6839
I6838
sVexplicitly
p6840
I6839
sVbelieving
p6841
I6840
sVcautioned
p6842
I6841
sVuncles
p6843
I6842
sV*just*
p6844
I6843
sVbegging
p6845
I6844
sVexpectation
p6846
I6845
sVlighter
p6847
I6846
sVregarding
p6848
I6847
sVpaper
p6849
I6848
sV18-year-old
p6850
I6849
sVpredicted
p6851
I6850
sVzaragozano
p6852
I6851
sVdiscussing
p6853
I6852
sVy'all
p6854
I6853
sVignored
p6855
I6854
sVpummeled
p6856
I6855
sVconnections
p6857
I6856
sVsimmering
p6858
I6857
sVparking
p6859
I6858
sVstanley
p6860
I6859
sVencouraged
p6861
I6860
sVfails
p6862
I6861
sVfarmers
p6863
I6862
sVways
p6864
I6863
sVsubsequent
p6865
I6864
sVreview
p6866
I6865
sVweapons
p6867
I6866
sVoutside
p6868
I6867
sVsurfaced
p6869
I6868
sVarrival
p6870
I6869
sVmultiplied
p6871
I6870
sVrumours
p6872
I6871
sVoriginated
p6873
I6872
sVyoued
p6874
I6873
sVfifty-year-
p6875
I6874
sVagencies
p6876
I6875
sVhariri
p6877
I6876
sVsacked
p6878
I6877
sVrapidly
p6879
I6878
sVcities
p6880
I6879
sVcome
p6881
I6880
sVpostage
p6882
I6881
sVreaction
p6883
I6882
sVacquiring
p6884
I6883
sVmissions
p6885
I6884
sVlibya
p6886
I6885
sVsuccesses
p6887
I6886
sVregion
p6888
I6887
sVpriests
p6889
I6888
sVquiet
p6890
I6889
sVcontract
p6891
I6890
sVcolumnist
p6892
I6891
sVsenator
p6893
I6892
sVdeported
p6894
I6893
sVduty
p6895
I6894
sVpakistan
p6896
I6895
sVafterwards
p6897
I6896
sVbricks
p6898
I6897
sVpot
p6899
I6898
sVperiod
p6900
I6899
sVpop
p6901
I6900
sVapproval
p6902
I6901
sVpolo
p6903
I6902
sVbizarre
p6904
I6903
sVpoll
p6905
I6904
sVskeletons
p6906
I6905
sVturkey
p6907
I6906
sVteammate
p6908
I6907
sVhoward
p6909
I6908
sVabdul
p6910
I6909
sVescalated
p6911
I6910
sVeyewitnesses
p6912
I6911
sVpeaceful
p6913
I6912
sVhelicopter
p6914
I6913
sVfeaturing
p6915
I6914
sVin-law
p6916
I6915
sVengine
p6917
I6916
sVdirection
p6918
I6917
sVzrigs
p6919
I6918
sVsupervisor
p6920
I6919
sVreimburse
p6921
I6920
sVblessing
p6922
I6921
sVandrew
p6923
I6922
sVcolo.
p6924
I6923
sVminister
p6925
I6924
sVcareful
p6926
I6925
sVirrelevant
p6927
I6926
sVspirit
p6928
I6927
sVpilot
p6929
I6928
sVcase
p6930
I6929
sVmyself
p6931
I6930
sVamend
p6932
I6931
sVmount
p6933
I6932
sVcash
p6934
I6933
sVcast
p6935
I6934
sVintifada
p6936
I6935
sVabducted
p6937
I6936
sVvest
p6938
I6937
sVellison
p6939
I6938
sVdallic
p6940
I6939
sVparse
p6941
I6940
sVgood
p6942
I6941
sVpunched
p6943
I6942
sVdecisively
p6944
I6943
sVvolition
p6945
I6944
sVfloridians
p6946
I6945
sVauthor
p6947
I6946
sVgranted
p6948
I6947
sVpostwar
p6949
I6948
sVreminded
p6950
I6949
sVtrip
p6951
I6950
sVbuys
p6952
I6951
sVreminder
p6953
I6952
sVinsurers
p6954
I6953
sVevents
p6955
I6954
sVweek
p6956
I6955
sVvivendi
p6957
I6956
sVmockery
p6958
I6957
sVnest
p6959
I6958
sVrefusal
p6960
I6959
sVdriver
p6961
I6960
sVdriven
p6962
I6961
sVsubmarines
p6963
I6962
sVstennis
p6964
I6963
sVstatue
p6965
I6964
sVchanging
p6966
I6965
sVvowed
p6967
I6966
sVweakened
p6968
I6967
sVpennsylvania
p6969
I6968
sVsafely
p6970
I6969
sVranch
p6971
I6970
sVwithout
p6972
I6971
sVrelief
p6973
I6972
sVrelied
p6974
I6973
sVinability
p6975
I6974
sVtermination
p6976
I6975
sVreward
p6977
I6976
sVbodies
p6978
I6977
sVjustify
p6979
I6978
sVseventy-two
p6980
I6979
sVmccrary
p6981
I6980
sVactions
p6982
I6981
sVviolent
p6983
I6982
sVpariah
p6984
I6983
sVkill
p6985
I6984
sVdominique
p6986
I6985
sVperilous
p6987
I6986
sVcaptured
p6988
I6987
sVhalfway
p6989
I6988
sVblow
p6990
I6989
sVannouncement
p6991
I6990
sVfriendly-fire
p6992
I6991
sVny
p6993
I6992
sVrose
p6994
I6993
sVseems
p6995
I6994
sVexcept
p6996
I6995
sVairfield
p6997
I6996
sVanti-aircraft
p6998
I6997
sVshrine
p6999
I6998
sVbloc
p7000
I6999
sVviewers
p7001
I7000
sVpoised
p7002
I7001
sVdisrupt
p7003
I7002
sVkingdom
p7004
I7003
sViraq/iran
p7005
I7004
sVrwandan
p7006
I7005
sVkills
p7007
I7006
sVvirginia
p7008
I7007
sVinflation
p7009
I7008
sVaccepted
p7010
I7009
sVjdam
p7011
I7010
sVkennedy
p7012
I7011
sVout-of-court
p7013
I7012
sVpatrick
p7014
I7013
sVtowed
p7015
I7014
sVdonations
p7016
I7015
sVtower
p7017
I7016
sVendureance
p7018
I7017
sVreduced
p7019
I7018
sVpacific
p7020
I7019
sVsnatched
p7021
I7020
sVtable
p7022
I7021
sVinformant
p7023
I7022
sVprovided
p7024
I7023
sVmood
p7025
I7024
sVstops
p7026
I7025
sVkamel
p7027
I7026
sVhanif
p7028
I7027
sVprovides
p7029
I7028
sVquitting
p7030
I7029
sVkalak
p7031
I7030
sVslaughter
p7032
I7031
sVupdate
p7033
I7032
sVterrified
p7034
I7033
sVstereotypes
p7035
I7034
sV_
p7036
I7035
sVon
p7037
I7036
sVsubdued
p7038
I7037
sVok
p7039
I7038
sVoh
p7040
I7039
sVjeep
p7041
I7040
sVof
p7042
I7041
sVcoast-based
p7043
I7042
sVdiscussed
p7044
I7043
sVmutually
p7045
I7044
sVstand
p7046
I7045
sVanti-immigration
p7047
I7046
sVexecs
p7048
I7047
sVor
p7049
I7048
sVamber
p7050
I7049
sVhc-130
p7051
I7050
sVhypothermia
p7052
I7051
sVreactions
p7053
I7052
sVbbc
p7054
I7053
sVju-
p7055
I7054
sVspinal
p7056
I7055
sVaccounts
p7057
I7056
sVdetermine
p7058
I7057
sVgary
p7059
I7058
sVmoseley-braun
p7060
I7059
sVimmense
p7061
I7060
sVstrictly
p7062
I7061
sVthere
p7063
I7062
sValleged
p7064
I7063
sVstrict
p7065
I7064
sVg-8
p7066
I7065
sVvalley
p7067
I7066
sVcatholics
p7068
I7067
sVatack
p7069
I7068
sVregard
p7070
I7069
sVamongst
p7071
I7070
sVcabinet
p7072
I7071
sVstaunchest
p7073
I7072
sVpromote
p7074
I7073
sVfaster
p7075
I7074
sVal-sahhaf
p7076
I7075
sVextermination
p7077
I7076
sVl.a.
p7078
I7077
sVtriple-a
p7079
I7078
sVstrongly
p7080
I7079
sVtaylor
p7081
I7080
sVcontributors
p7082
I7081
sVtugle
p7083
I7082
sVtotaling
p7084
I7083
sVclassped
p7085
I7084
sVminneapolis
p7086
I7085
sVcbs
p7087
I7086
sVbritain
p7088
I7087
sVpolitics
p7089
I7088
sVhimself
p7090
I7089
sVbishop
p7091
I7090
sVstumbled
p7092
I7091
sVidiot
p7093
I7092
sVrubber
p7094
I7093
sVatropine
p7095
I7094
sV101st
p7096
I7095
sVrequested
p7097
I7096
sVbriefly
p7098
I7097
sVdetainees
p7099
I7098
sV15-50
p7100
I7099
sVbullets
p7101
I7100
sVincluded
p7102
I7101
sV5-day
p7103
I7102
sVstocks
p7104
I7103
sVal-qaeda
p7105
I7104
sVpsychology
p7106
I7105
sVernie
p7107
I7106
sVcalls
p7108
I7107
sVwife
p7109
I7108
sVodds
p7110
I7109
sVdirectors
p7111
I7110
sVderrick
p7112
I7111
sVall
p7113
I7112
sVlace
p7114
I7113
sVchinese
p7115
I7114
sVali
p7116
I7115
sVgupta
p7117
I7116
sVlaci
p7118
I7117
sVlack
p7119
I7118
sVspacecraft
p7120
I7119
sVfollow
p7121
I7120
sVsettlement
p7122
I7121
sVdecisions
p7123
I7122
sVapartment
p7124
I7123
sVswitched
p7125
I7124
sVthursday
p7126
I7125
sVremoval
p7127
I7126
sVprogram
p7128
I7127
sVlawmakers
p7129
I7128
sVactivities
p7130
I7129
sVbelonging
p7131
I7130
sVal-
p7132
I7131
sVworse
p7133
I7132
sVegyptian
p7134
I7133
sVfar
p7135
I7134
sVfat
p7136
I7135
sVsons
p7137
I7136
sVfan
p7138
I7137
sVawful
p7139
I7138
sVtreating
p7140
I7139
sV''we
p7141
I7140
sVkhomeini
p7142
I7141
sVprolonged
p7143
I7142
sVgrandfather
p7144
I7143
sVvibes
p7145
I7144
sVlesbians
p7146
I7145
sVlisa
p7147
I7146
sVprogramme
p7148
I7147
sVtel
p7149
I7148
sVten
p7150
I7149
sVuacc
p7151
I7150
sVted
p7152
I7151
sVrate
p7153
I7152
sVdesign
p7154
I7153
sVnbc
p7155
I7154
sVfunctioning
p7156
I7155
sVremarkably
p7157
I7156
sVwhat
p7158
I7157
sVdeeply
p7159
I7158
sVsum
p7160
I7159
sVbrief
p7161
I7160
sVversion
p7162
I7161
sVattitudes
p7163
I7162
sVrow
p7164
I7163
sVracing
p7165
I7164
sVguns
p7166
I7165
sVwomb
p7167
I7166
sVlayers
p7168
I7167
sVchristian
p7169
I7168
sVsupposedly
p7170
I7169
sVwhen-
p7171
I7170
sVcombating
p7172
I7171
sVandrews
p7173
I7172
sVtragedy
p7174
I7173
sVnaval
p7175
I7174
sVdifficulty
p7176
I7175
sVoptions
p7177
I7176
sVex-president
p7178
I7177
sVthankfully
p7179
I7178
sVretaler
p7180
I7179
sVbongoyan
p7181
I7180
sVairlifting
p7182
I7181
sVabsentia
p7183
I7182
sVresearch
p7184
I7183
sVproceed
p7185
I7184
sVforcefully
p7186
I7185
sVyilmaz
p7187
I7186
sVbranded
p7188
I7187
sVminor
p7189
I7188
sV'mujahideen
p7190
I7189
sVisrael
p7191
I7190
sVknows
p7192
I7191
sVdefinition
p7193
I7192
sVmire
p7194
I7193
sVflag
p7195
I7194
sVstick
p7196
I7195
sVknown
p7197
I7196
sVbenefits
p7198
I7197
sVglad
p7199
I7198
sVhigher-than-usual
p7200
I7199
sVpolicemen
p7201
I7200
sVdebated
p7202
I7201
sVintercepted
p7203
I7202
sVv
p7204
I7203
sVprotestors
p7205
I7204
sVprompting
p7206
I7205
sVniagara
p7207
I7206
sVpond
p7208
I7207
sVairplane
p7209
I7208
sVkuwaiti
p7210
I7209
sVcourt
p7211
I7210
sVgoal
p7212
I7211
sVdesperation
p7213
I7212
sVrather
p7214
I7213
sVbreaking
p7215
I7214
sS'<PAD>'
p7216
I0
sVjailers
p7217
I7215
sVstemming
p7218
I7216
sVspeeding
p7219
I7217
sVteped
p7220
I7218
sVbarghouti
p7221
I7219
sVokay
p7222
I7220
sVreflect
p7223
I7221
sVfascism
p7224
I7222
sVadventure
p7225
I7223
sVtrucks
p7226
I7224
sVshort
p7227
I7225
sVdeparture
p7228
I7226
sVshore
p7229
I7227
sVassailant
p7230
I7228
sVlhr
p7231
I7229
sVhalf-dozen
p7232
I7230
sVbegan
p7233
I7231
sVturnover
p7234
I7232
sVlahiya
p7235
I7233
sVwould-
p7236
I7234
sVseptember
p7237
I7235
sVessence
p7238
I7236
sVmission
p7239
I7237
sVdisabled
p7240
I7238
sVlogan
p7241
I7239
sVscientist
p7242
I7240
sVpretext
p7243
I7241
sVdeveloper
p7244
I7242
sVthirtieth
p7245
I7243
sVstyle
p7246
I7244
sVtrans-gaza
p7247
I7245
sVclashed
p7248
I7246
sVpray
p7249
I7247
sVlobbed
p7250
I7248
sVclashes
p7251
I7249
sVresort
p7252
I7250
sVstrange
p7253
I7251
sVanti-responsibility
p7254
I7252
sVmounted
p7255
I7253
sVmight
p7256
I7254
sVjacobo
p7257
I7255
sVwouldn
p7258
I7256
sVreturn
p7259
I7257
sVgovernorate
p7260
I7258
sVnumber
p7261
I7259
sVunderground
p7262
I7260
sVbigger
p7263
I7261
sVinstructions
p7264
I7262
sVpoliceman
p7265
I7263
sVtelegraph
p7266
I7264
sVdifficult
p7267
I7265
sVfriendship
p7268
I7266
sVmedford
p7269
I7267
sVmansour
p7270
I7268
sVweight
p7271
I7269
sVgeneration
p7272
I7270
sV173rd
p7273
I7271
sVoppressed
p7274
I7272
sV450-kilogram
p7275
I7273
sVhawaii
p7276
I7274
sVexpect
p7277
I7275
sVkobe
p7278
I7276
sVwondered
p7279
I7277
sVcontended
p7280
I7278
sVhealth
p7281
I7279
sVshipment
p7282
I7280
sV1-3
p7283
I7281
sVwisconsin
p7284
I7282
sVblaring
p7285
I7283
sVfriday
p7286
I7284
sVeffect
p7287
I7285
sVreguarding
p7288
I7286
sValzheimer
p7289
I7287
sVrandall
p7290
I7288
sVteach
p7291
I7289
sVguy
p7292
I7290
sVthrown
p7293
I7291
sVtsunamis
p7294
I7292
sVthread
p7295
I7293
sVsylvester
p7296
I7294
sVprivations
p7297
I7295
sVthreat
p7298
I7296
sVdivorce
p7299
I7297
sVconsequence
p7300
I7298
sVfallen
p7301
I7299
sVfeel
p7302
I7300
sVradical
p7303
I7301
sVdiller
p7304
I7302
sVlinking
p7305
I7303
sVfeet
p7306
I7304
sVsympathy
p7307
I7305
sVrevolution
p7308
I7306
sVcolombia
p7309
I7307
sVshi'ite
p7310
I7308
sVdetonated
p7311
I7309
sVcorporal
p7312
I7310
sVpasses
p7313
I7311
sVstory
p7314
I7312
sVcrossville
p7315
I7313
sVleading
p7316
I7314
sVinterviews
p7317
I7315
sVmicheline
p7318
I7316
sVstrategy
p7319
I7317
sVf-14
p7320
I7318
sVstorm
p7321
I7319
sVf-18
p7322
I7320
sVfinances
p7323
I7321
sVstore
p7324
I7322
sVattendants
p7325
I7323
sVerupted
p7326
I7324
sVrelieved
p7327
I7325
sVexploded
p7328
I7326
sVhotel
p7329
I7327
sVcondoleezza
p7330
I7328
sV55,119.75
p7331
I7329
sVvindication
p7332
I7330
sVinaugurated
p7333
I7331
sVking
p7334
I7332
sVkind
p7335
I7333
sVdouble
p7336
I7334
sVinvaded
p7337
I7335
sVaims
p7338
I7336
sVjurisdiction
p7339
I7337
sVshalom
p7340
I7338
sVarchitect
p7341
I7339
sVrisks
p7342
I7340
sVdana
p7343
I7341
sVrisky
p7344
I7342
sVmotivation
p7345
I7343
sVigor
p7346
I7344
sVstrengthen
p7347
I7345
sVsuspicious
p7348
I7346
sVdepleted
p7349
I7347
sVheightening
p7350
I7348
sVwilson
p7351
I7349
sVimf
p7352
I7350
sVtired
p7353
I7351
sVport
p7354
I7352
sVmiddlemen
p7355
I7353
sVchairman
p7356
I7354
sVfinding
p7357
I7355
sVdonor
p7358
I7356
sVadded
p7359
I7357
sVelectric
p7360
I7358
sVintervened
p7361
I7359
sVpark
p7362
I7360
sVreach
p7363
I7361
sVreunited
p7364
I7362
sVreact
p7365
I7363
sVshareholder
p7366
I7364
sVenduring
p7367
I7365
sVnothing
p7368
I7366
sVmeasured
p7369
I7367
sVstands
p7370
I7368
sVwindows
p7371
I7369
sVwichita
p7372
I7370
sVtraditional
p7373
I7371
sVhentoff
p7374
I7372
sVinstitutions
p7375
I7373
sVlying
p7376
I7374
sVstones
p7377
I7375
sVo'conner
p7378
I7376
sVjossling
p7379
I7377
sVhi-
p7380
I7378
sVpenalty
p7381
I7379
sVjiddah
p7382
I7380
sVunilaterally
p7383
I7381
sVshepherd
p7384
I7382
sVhir
p7385
I7383
sVhis
p7386
I7384
sVhit
p7387
I7385
sVhiv
p7388
I7386
sVwhistle
p7389
I7387
sV5,000
p7390
I7388
sVtime-consuming
p7391
I7389
sVcritically
p7392
I7390
sVnetanya
p7393
I7391
sVinvestigate
p7394
I7392
sVactivity
p7395
I7393
sVretaliated
p7396
I7394
sVwrote
p7397
I7395
sVforego
p7398
I7396
sVedgefield
p7399
I7397
sVachieved
p7400
I7398
sVintelligence
p7401
I7399
sVfireback
p7402
I7400
sVdefense
p7403
I7401
sVare
p7404
I7402
sV1,000,000
p7405
I7403
sVari
p7406
I7404
sVovercaes
p7407
I7405
sVarm
p7408
I7406
sVdeclined
p7409
I7407
sVnegroponte
p7410
I7408
sVvisualize
p7411
I7409
sVthreats
p7412
I7410
sVunions
p7413
I7411
sVvarious
p7414
I7412
sVorbiting
p7415
I7413
sVweddi
p7416
I7414
sVcorruption
p7417
I7415
sVkorea
p7418
I7416
sVrecently
p7419
I7417
sVcreating
p7420
I7418
sVinitially
p7421
I7419
sVsold
p7422
I7420
sVattention
p7423
I7421
sVopposition
p7424
I7422
sVfranchise
p7425
I7423
sVcitys
p7426
I7424
sVcondo
p7427
I7425
sVprelude
p7428
I7426
sVprescription
p7429
I7427
sVserbs
p7430
I7428
sVlicense
p7431
I7429
sVgolf-cart-sized
p7432
I7430
sVbecame
p7433
I7431
sVfraternity
p7434
I7432
sVpost-milosevic
p7435
I7433
sVre-electing
p7436
I7434
sVclashing
p7437
I7435
sVreasons
p7438
I7436
sVsmith
p7439
I7437
sVbeenify
p7440
I7438
sVeyewitness
p7441
I7439
sVpr
p7442
I7440
sVthere-
p7443
I7441
sVdun
p7444
I7442
sVissawi
p7445
I7443
sVpolitical
p7446
I7444
sVdue
p7447
I7445
sVteacher
p7448
I7446
sVwhom
p7449
I7447
sVmanhunt
p7450
I7448
sVcheckbook
p7451
I7449
sVph
p7452
I7450
sVwhoa
p7453
I7451
sVpm
p7454
I7452
sVflight
p7455
I7453
sValgeria
p7456
I7454
sVbeforehand
p7457
I7455
sVfirefighters
p7458
I7456
sVkramers
p7459
I7457
sVdemand
p7460
I7458
sVrocking
p7461
I7459
sVheighten
p7462
I7460
sVtoppling
p7463
I7461
sVindefinitely
p7464
I7462
sVevaluated
p7465
I7463
sVparachutes
p7466
I7464
sVp.
p7467
I7465
sVfrantic
p7468
I7466
sVbuckeye
p7469
I7467
sVrid
p7470
I7468
sVuna-usa
p7471
I7469
sVexaminers
p7472
I7470
sVcurrents
p7473
I7471
sVlengthy
p7474
I7472
sVaged
p7475
I7473
sVshirt
p7476
I7474
sVfirearms
p7477
I7475
sVwidely
p7478
I7476
sVspears
p7479
I7477
sVhigher
p7480
I7478
sVarrives
p7481
I7479
sVman-portable
p7482
I7480
sVrestraint
p7483
I7481
sVnegotiate
p7484
I7482
sVholidays
p7485
I7483
sVflown
p7486
I7484
sVarrived
p7487
I7485
sVb.p
p7488
I7486
sVanybody
p7489
I7487
sVanalysis
p7490
I7488
sVedge
p7491
I7489
sVdesies
p7492
I7490
sVstating
p7493
I7491
sVknow
p7494
I7492
sVatlanta-area
p7495
I7493
sVall-star
p7496
I7494
sVquestions
p7497
I7495
sVturbulence
p7498
I7496
sVretired
p7499
I7497
sV15-year
p7500
I7498
sVprince
p7501
I7499
sVgems
p7502
I7500
sVworkers
p7503
I7501
sVexclusively
p7504
I7502
sVgovernmental
p7505
I7503
sVviolations
p7506
I7504
sVcustomers
p7507
I7505
sVave.
p7508
I7506
sVjacksonville
p7509
I7507
sVhelpful
p7510
I7508
sVskeptical
p7511
I7509
sVconfront
p7512
I7510
sVcommanders
p7513
I7511
sV10,500
p7514
I7512
sVseparately
p7515
I7513
sVunstable
p7516
I7514
sVyorker
p7517
I7515
sVessential
p7518
I7516
sVhinted
p7519
I7517
sVpost-trip
p7520
I7518
sVfucking
p7521
I7519
sVimpassioned
p7522
I7520
sVunderstood
p7523
I7521
sVlitter
p7524
I7522
sVgrenades
p7525
I7523
sVvacate
p7526
I7524
sVretry
p7527
I7525
sVthoracostomy
p7528
I7526
sVmeds
p7529
I7527
sVprof
p7530
I7528
sVanna
p7531
I7529
sVmartin
p7532
I7530
sVraided
p7533
I7531
sVrefused
p7534
I7532
sVmanpads
p7535
I7533
sVrefuses
p7536
I7534
sVintense
p7537
I7535
sVpipeline
p7538
I7536
sVcautious
p7539
I7537
sVseeped
p7540
I7538
sVmost
p7541
I7539
sVfiring
p7542
I7540
sVvirus
p7543
I7541
sVrange
p7544
I7542
sVmilitia
p7545
I7543
sVhatred
p7546
I7544
sVcredible
p7547
I7545
sVeight-year-old
p7548
I7546
sVconquest
p7549
I7547
sVcanal
p7550
I7548
sVimpressed
p7551
I7549
sVpundit
p7552
I7550
sVdefaming
p7553
I7551
sVquestion
p7554
I7552
sVfast
p7555
I7553
sVconceivable
p7556
I7554
sVanalyze
p7557
I7555
sVrepeatedly
p7558
I7556
sVfiled
p7559
I7557
sVjunior
p7560
I7558
sVraising
p7561
I7559
sVhush
p7562
I7560
sVpatriot
p7563
I7561
sVdeclarations
p7564
I7562
sVbankrolling
p7565
I7563
sVfried
p7566
I7564
sVetc.
p7567
I7565
sVcalled
p7568
I7566
sVmediation
p7569
I7567
sVassociated
p7570
I7568
sVdivisive
p7571
I7569
sVwarning
p7572
I7570
sVrally
p7573
I7571
sVgraham
p7574
I7572
sVproofs
p7575
I7573
sVevils
p7576
I7574
sVpeace
p7577
I7575
sVbacks
p7578
I7576
sVfasulo
p7579
I7577
sVdemocratically
p7580
I7578
sVnice
p7581
I7579
sVdale
p7582
I7580
sVwarplane
p7583
I7581
sVbreasts
p7584
I7582
sVmedina
p7585
I7583
sVreplace
p7586
I7584
sVmeaning
p7587
I7585
sVtomcats
p7588
I7586
sVallowing
p7589
I7587
sVvice
p7590
I7588
sVattacking
p7591
I7589
sVnasa
p7592
I7590
sVhumvee
p7593
I7591
sVjoining
p7594
I7592
sVonce
p7595
I7593
sVmelvern
p7596
I7594
sVissued
p7597
I7595
sVhamadan
p7598
I7596
sVresistance
p7599
I7597
sVsteve
p7600
I7598
sVinfatuation
p7601
I7599
sVreferencing
p7602
I7600
sVcontributions
p7603
I7601
sVissues
p7604
I7602
sVvenerated
p7605
I7603
sVleung
p7606
I7604
sVdisposal
p7607
I7605
sVshanghai
p7608
I7606
sVdissidents
p7609
I7607
sVstable
p7610
I7608
sVinclude
p7611
I7609
sVsniper
p7612
I7610
sVdandy
p7613
I7611
sVconfirmation
p7614
I7612
sVseized
p7615
I7613
sVbosses
p7616
I7614
sVartery
p7617
I7615
sVdrinking
p7618
I7616
sVal-faisal
p7619
I7617
sVbryant
p7620
I7618
sVpaternity
p7621
I7619
sVnotes
p7622
I7620
sVdeals
p7623
I7621
sVdemonstrated
p7624
I7622
sVdealt
p7625
I7623
sVunderscored
p7626
I7624
sVsettlers
p7627
I7625
sVnoted
p7628
I7626
sVconcluded
p7629
I7627
sVwrestling
p7630
I7628
sVsensation
p7631
I7629
sVeuphrates
p7632
I7630
sVtraveling
p7633
I7631
sVplead
p7634
I7632
sVappeased
p7635
I7633
sVnetworks
p7636
I7634
sVwaiting
p7637
I7635
sVgubernatorial
p7638
I7636
sVcapital
p7639
I7637
sVammunition
p7640
I7638
sVranjha
p7641
I7639
sVnazis
p7642
I7640
sVimpact
p7643
I7641
sVchose
p7644
I7642
sVpushing
p7645
I7643
sVcategorically
p7646
I7644
sVyoungest
p7647
I7645
sVclinghover
p7648
I7646
sVbozos
p7649
I7647
sVtarred
p7650
I7648
sVtriage
p7651
I7649
sVlarger
p7652
I7650
sVleaving
p7653
I7651
sVevading
p7654
I7652
sVfy2005
p7655
I7653
sVfy2004
p7656
I7654
sVslightest
p7657
I7655
sVpayoffs
p7658
I7656
sVsheila
p7659
I7657
sVu.k.
p7660
I7658
sVdeputy
p7661
I7659
sVegypt
p7662
I7660
sVapt
p7663
I7661
sVmotor
p7664
I7662
sVlodging
p7665
I7663
sVapply
p7666
I7664
sVthick
p7667
I7665
sVunprovoked
p7668
I7666
sVuse
p7669
I7667
sVlottery
p7670
I7668
sVstream
p7671
I7669
sVusa
p7672
I7670
sV&
p7673
I7671
sVusn
p7674
I7672
sVgerm
p7675
I7673
sVfew
p7676
I7674
sVuss
p7677
I7675
sVplaning
p7678
I7676
sVparliament
p7679
I7677
sVjournalists
p7680
I7678
sVcooperate
p7681
I7679
sVrecount
p7682
I7680
sVwomen
p7683
I7681
sV1980s
p7684
I7682
sVus-
p7685
I7683
sVashcroft
p7686
I7684
sVcondominium
p7687
I7685
sVtat
p7688
I7686
sVarafat
p7689
I7687
sVpatrol
p7690
I7688
sVtax
p7691
I7689
sVsomething
p7692
I7690
sVtab
p7693
I7691
sVserial
p7694
I7692
sVrape
p7695
I7693
sVsir
p7696
I7694
sVcaliph
p7697
I7695
sVsyndrome
p7698
I7696
sVsit
p7699
I7697
sVhandover
p7700
I7698
sVsix
p7701
I7699
sVprognosis
p7702
I7700
sVinstead
p7703
I7701
sVmccoy
p7704
I7702
sVmemoir
p7705
I7703
sVtension
p7706
I7704
sVpuppets
p7707
I7705
sVstating-
p7708
I7706
sVmaternal
p7709
I7707
sVattend
p7710
I7708
sVtact
p7711
I7709
sVmasks
p7712
I7710
sVperjury
p7713
I7711
sVabuse
p7714
I7712
sVethnic
p7715
I7713
sVrichland
p7716
I7714
sVhollers
p7717
I7715
sVmartins
p7718
I7716
sVlight
p7719
I7717
sVtenure
p7720
I7718
sVventures
p7721
I7719
sVkba
p7722
I7720
sVpistols
p7723
I7721
sVlooks
p7724
I7722
sVtyrant
p7725
I7723
sVinterpreter
p7726
I7724
sVboosts
p7727
I7725
sVsuperior
p7728
I7726
sVreeve
p7729
I7727
sVsunni
p7730
I7728
sVships
p7731
I7729
sV7:00
p7732
I7730
sVinspecting
p7733
I7731
sVorange
p7734
I7732
sVcovered
p7735
I7733
sVholiday
p7736
I7734
sVdefining
p7737
I7735
sVpending
p7738
I7736
sVflex
p7739
I7737
sVcrash
p7740
I7738
sVmaterial
p7741
I7739
sVflew
p7742
I7740
sVnegligent
p7743
I7741
sVresolve
p7744
I7742
sVferguson
p7745
I7743
sVambition
p7746
I7744
sVsatellites
p7747
I7745
sVrepublican
p7748
I7746
sVflee
p7749
I7747
sVfled
p7750
I7748
sV~tv
p7751
I7749
sVlandings
p7752
I7750
sVarticles
p7753
I7751
sVnfl
p7754
I7752
sVunpredictable
p7755
I7753
sVby-
p7756
I7754
sVrockets
p7757
I7755
sVbills
p7758
I7756
sVstudios
p7759
I7757
sVrelated
p7760
I7758
sVfishcer
p7761
I7759
sVremove
p7762
I7760
sVgeiger
p7763
I7761
sVhighest-rated
p7764
I7762
sVour
p7765
I7763
sVfirefights
p7766
I7764
sVout
p7767
I7765
sVdisarray
p7768
I7766
sVchaos
p7769
I7767
sVtuchman
p7770
I7768
sVsupports
p7771
I7769
sVlt.
p7772
I7770
sVrevoke
p7773
I7771
sVaverted
p7774
I7772
sVmaintains
p7775
I7773
sVyork
p7776
I7774
sVconflicts
p7777
I7775
sVanyhow
p7778
I7776
sVyore
p7779
I7777
sVcomrade
p7780
I7778
sVislamic
p7781
I7779
sVconversation
p7782
I7780
sV4th
p7783
I7781
sVnatgions
p7784
I7782
sVproposing
p7785
I7783
sVprobation
p7786
I7784
sVimperial
p7787
I7785
sVheroes
p7788
I7786
sVdestinations
p7789
I7787
sVpublication
p7790
I7788
sVunknown
p7791
I7789
sVpriority
p7792
I7790
sVtheir
p7793
I7791
sVbadness
p7794
I7792
sVshell
p7795
I7793
sVregards
p7796
I7794
sVjuly
p7797
I7795
sVcommence
p7798
I7796
sVholland
p7799
I7797
sVgeoff
p7800
I7798
sVtommy
p7801
I7799
sVpatients
p7802
I7800
sVcreditors
p7803
I7801
sV1.3
p7804
I7802
sVanti-fertility
p7805
I7803
sV1.8
p7806
I7804
sVunelected
p7807
I7805
sVblix
p7808
I7806
sVlinked
p7809
I7807
sVcatholic
p7810
I7808
sVafraid
p7811
I7809
sVrussians
p7812
I7810
sVrout
p7813
I7811
sVagency
p7814
I7812
sVahold
p7815
I7813
sVwhich
p7816
I7814
sVdivert
p7817
I7815
sVmartha
p7818
I7816
sV=
p7819
I7817
sVcombat
p7820
I7818
sVcentre
p7821
I7819
sVwho
p7822
I7820
sVaccountants
p7823
I7821
sVplans-of
p7824
I7822
sVwhy
p7825
I7823
sVdiscourage
p7826
I7824
sVneighboring
p7827
I7825
sVlooked
p7828
I7826
sVgoals
p7829
I7827
sVchances
p7830
I7828
sVplease
p7831
I7829
sVagreed
p7832
I7830
sVpurely
p7833
I7831
sVplanning
p7834
I7832
sVdemocrats
p7835
I7833
sVfear
p7836
I7834
sVsa-6s
p7837
I7835
sVbottling
p7838
I7836
sVfilmed
p7839
I7837
sVexacerbating
p7840
I7838
sVoperational
p7841
I7839
sVcandidates
p7842
I7840
sVbogged
p7843
I7841
sVneared
p7844
I7842
sVmarriage
p7845
I7843
sVthousands
p7846
I7844
sVtopple
p7847
I7845
sVwatching
p7848
I7846
sVmost-trusted
p7849
I7847
sVones
p7850
I7848
sVlast-ditch
p7851
I7849
sVwords
p7852
I7850
sVhomosexuals
p7853
I7851
sVbrain
p7854
I7852
sVmarried
p7855
I7853
sVmoo-hyun
p7856
I7854
sVretook
p7857
I7855
sVkremlin-run
p7858
I7856
sVjenning
p7859
I7857
sVviet
p7860
I7858
sVview
p7861
I7859
sVknowing
p7862
I7860
sVacquired
p7863
I7861
sVcloser
p7864
I7862
sVwipped
p7865
I7863
sVcloset
p7866
I7864
sVarguably
p7867
I7865
sVmonstrous
p7868
I7866
sVfavor
p7869
I7867
sVclosed
p7870
I7868
sVlimit
p7871
I7869
sVbought
p7872
I7870
sVability
p7873
I7871
sVopening
p7874
I7872
sVjoy
p7875
I7873
sVrescuers
p7876
I7874
sVgunships
p7877
I7875
sVtimberwolves
p7878
I7876
sVjob
p7879
I7877
sVtakeover
p7880
I7878
sVjoe
p7881
I7879
sV200,000
p7882
I7880
sVprobing
p7883
I7881
sVswift
p7884
I7882
sVit's-
p7885
I7883
sVapril
p7886
I7884
sVdeter
p7887
I7885
sVauctions
p7888
I7886
sVtactical
p7889
I7887
sVofra
p7890
I7888
sVgrounds
p7891
I7889
sVunclear
p7892
I7890
sVwall
p7893
I7891
sVwalk
p7894
I7892
sVwalt
p7895
I7893
sVundetected
p7896
I7894
sVrespect
p7897
I7895
sVwithdrawn
p7898
I7896
sVprovinces
p7899
I7897
sVi.e.
p7900
I7898
sVhorrific
p7901
I7899
sVhunters
p7902
I7900
sVtrademark
p7903
I7901
sVbroadcasts
p7904
I7902
sVagreements
p7905
I7903
sVremedies
p7906
I7904
sVmike
p7907
I7905
sVliverpool
p7908
I7906
sVverizon
p7909
I7907
sVsufficient
p7910
I7908
sVthrusting
p7911
I7909
sVscrutiny
p7912
I7910
sVimproved
p7913
I7911
sVoverturn
p7914
I7912
sVpresent
p7915
I7913
sVabandoned
p7916
I7914
sVunlike
p7917
I7915
sVappropriations
p7918
I7916
sVwill
p7919
I7917
sVstunning
p7920
I7918
sVninety-six
p7921
I7919
sVpro-troops
p7922
I7920
sVnon-proliferation
p7923
I7921
sVthus
p7924
I7922
sVencouragement
p7925
I7923
sVavs
p7926
I7924
sVdraining
p7927
I7925
sVmalls
p7928
I7926
sVavi
p7929
I7927
sVperhaps
p7930
I7928
sVvintage
p7931
I7929
sV.this
p7932
I7930
sVcross
p7933
I7931
sVmember
p7934
I7932
sVlargest
p7935
I7933
sVunits
p7936
I7934
sVgets
p7937
I7935
sVdisorient
p7938
I7936
sVhammering
p7939
I7937
sVyoon
p7940
I7938
sVdiego
p7941
I7939
sVdisagree
p7942
I7940
sVmutual
p7943
I7941
sVromeo
p7944
I7942
sVovercrowded
p7945
I7943
sVstudent
p7946
I7944
sVlobby
p7947
I7945
sVcol.
p7948
I7946
sVcorrespondent
p7949
I7947
sVfighting
p7950
I7948
sVtheses
p7951
I7949
sVenglish
p7952
I7950
sVinc.
p7953
I7951
sVexcessive
p7954
I7952
sVrocket
p7955
I7953
sVheavily
p7956
I7954
sVyuganskneftegaz
p7957
I7955
sVfishing
p7958
I7956
sVpeoplesoft
p7959
I7957
sVrapid
p7960
I7958
sVsks
p7961
I7959
sVsupply
p7962
I7960
sVsky
p7963
I7961
sVbook
p7964
I7962
sVattractive
p7965
I7963
sVunprecedented
p7966
I7964
sVidentical
p7967
I7965
sVbranch
p7968
I7966
sVmyth
p7969
I7967
sVprotesters
p7970
I7968
sVbettman
p7971
I7969
sVmasih
p7972
I7970
sVleon
p7973
I7971
sVpress
p7974
I7972
sVgeorges
p7975
I7973
sVmiami
p7976
I7974
sVloser
p7977
I7975
sVovertures
p7978
I7976
sVjanuary
p7979
I7977
sVleaves
p7980
I7978
sVmissile-firing
p7981
I7979
sVbecause
p7982
I7980
sVcasteen
p7983
I7981
sVunsuccessful
p7984
I7982
sVsearching
p7985
I7983
sVplatforms
p7986
I7984
sVshinrikyo
p7987
I7985
sVempire
p7988
I7986
sVkdp
p7989
I7987
sVdisrupting
p7990
I7988
sVjeremy
p7991
I7989
sVlead
p7992
I7990
sVseverance
p7993
I7991
sVmines
p7994
I7992
sVmarkers
p7995
I7993
sVheavily-bombed
p7996
I7994
sVnoose
p7997
I7995
sVleader
p7998
I7996
sVlocate
p7999
I7997
sVripped
p8000
I7998
sVmurderer
p8001
I7999
sVmurdered
p8002
I8000
sVnationalities
p8003
I8001
sVpublishing
p8004
I8002
sVcarried
p8005
I8003
sVgetting
p8006
I8004
sVcolumn
p8007
I8005
sVshipping
p8008
I8006
sVsurge
p8009
I8007
sVcarrier
p8010
I8008
sVfatally
p8011
I8009
sVown
p8012
I8010
sVcocked
p8013
I8011
sVowe
p8014
I8012
sVtravelers
p8015
I8013
sVweather
p8016
I8014
sVpromise
p8017
I8015
sVregistration
p8018
I8016
sVyanked
p8019
I8017
sVprompted
p8020
I8018
sViron-clad
p8021
I8019
sVhitting
p8022
I8020
sVvan
p8023
I8021
sVsuburbs
p8024
I8022
sVtransfer
p8025
I8023
sVgroomed
p8026
I8024
sVminster
p8027
I8025
sVintention
p8028
I8026
sVtriggered
p8029
I8027
sVfunds
p8030
I8028
sVlaos
p8031
I8029
sVchallenges
p8032
I8030
sVmade
p8033
I8031
sVtactics
p8034
I8032
sVwhether
p8035
I8033
sVprotesting
p8036
I8034
sVrecord
p8037
I8035
sVbelow
p8038
I8036
sVruling
p8039
I8037
sVdemonstrate
p8040
I8038
sVnine-story
p8041
I8039
sVinadequate
p8042
I8040
sVnaming
p8043
I8041
sVsympathizers
p8044
I8042
sVdiplomat
p8045
I8043
sVavoided
p8046
I8044
sV'll
p8047
I8045
sV300th
p8048
I8046
sVincredible
p8049
I8047
sVcountermeasure
p8050
I8048
sVyarmuk
p8051
I8049
sVpercent
p8052
I8050
sVabigail
p8053
I8051
sVillinois
p8054
I8052
sVother
p8055
I8053
sVboom
p8056
I8054
sVsick
p8057
I8055
sVkurds
p8058
I8056
sVincredibly
p8059
I8057
sVhonorary
p8060
I8058
sVcontacting
p8061
I8059
sVconclusion
p8062
I8060
sVlance
p8063
I8061
sVjunk
p8064
I8062
sVkinds
p8065
I8063
sV_men_
p8066
I8064
sVjune
p8067
I8065
sVmargaret
p8068
I8066
sVceos
p8069
I8067
sV4.20
p8070
I8068
sVincurred
p8071
I8069
sVupwards
p8072
I8070
sVranks
p8073
I8071
sVfurthermore
p8074
I8072
s.